mads 2.1.8
synth.asm -o:synth.xex -l:synth.lst 
Source: synth.asm
     1 				; ============================================================================
     2 				;  ATARI POKEY SYNTH  -  GR.8 bitmap UI
     3 				;  Keyboard-playable 4-voice POKEY synth with an ADSR envelope and a drawn
     4 				;  control panel (knobs + switches up top, a piano keyboard along the bottom).
     5 				;
     6 				;  Play:   white keys Q W E R T Y U I O P  (naturals C D E F G A B C D E)
     7 				;          black keys 2 3 5 6 7 9 0         (sharps  C# D# F# G# A# C# D#)
     8 				;  Panel:  joystick UP/DOWN selects a parameter, LEFT/RIGHT adjusts it.
     9 				;
    10 				;  Video:  GR.8 (ANTIC mode $0F), 320x192, 1bpp, custom display list.
    11 				;  Target: PAL Atari XL/XE.  Assemble with MADS.
    12 				; ============================================================================
    13
    14 				; ----- OS / hardware equates ------------------------------------------------
    15 = 0012			RTCLOK  = $12           ; frame counter; +2 ($14) ticks every VBI
    16 = 004D			ATRACT  = $4D           ; attract-mode timer (clear to suppress colour cycling)
    17 = 02F0			CRSINH  = $02F0         ; cursor inhibit
    18 = 02DB			NOCLIK  = $02DB         ; key-click disable
    19 = 0278			STICK0  = $0278         ; OS joystick-0 shadow, active low
    20 = D010			STRIG0  = $D010         ; joystick-0 trigger (fire), 0 = pressed
    21 = 0230			SDLSTL  = $0230         ; OS display-list pointer (shadow)
    22 = 022F			SDMCTL  = $022F         ; OS DMACTL shadow
    23 = 02C5			COLOR1  = $02C5         ; COLPF1 shadow (hi-res foreground luminance)
    24 = 02C6			COLOR2  = $02C6         ; COLPF2 shadow (background)
    25 = 02C8			COLOR4  = $02C8         ; COLBK shadow (border)
    26
    27 = D01F			CONSOL  = $D01F         ; console keys START/SELECT/OPTION (read, active low)
    28 = D209			KBCODE  = $D209         ; raw keyboard scan code
    29 = D20F			SKSTAT  = $D20F         ; serial/keyboard status (read)
    30 = D20F			SKCTL   = $D20F         ; serial/keyboard control (write)
    31 = D200			AUDF1   = $D200         ; channel-1 frequency divisor
    32 = D201			AUDC1   = $D201         ; channel-1 control (distortion | volume)
    33 = D208			AUDCTL  = $D208         ; POKEY global audio control
    34
    35 = E000			ROMFONT = $E000         ; OS ROM character set (8 bytes/glyph, screen-code index)
    36 				; DEMO: DLI colour-band hardware registers
    37 = D40A			WSYNC   = $D40A         ; wait for horizontal sync (write)
    38 = D018			COLPF2  = $D018         ; playfield-2 colour (hi-res: hue of fg + bg)
    39 = D40E			NMIEN   = $D40E         ; NMI enable (bit7 = DLI, bit6 = VBI)
    40 = 0200			VDSLST  = $0200         ; DLI vector
    41 = 4000			FB1     = $4000         ; framebuffer region 1 (scan lines 0..101)
    42 = 5000			FB2     = $5000         ; framebuffer region 2 (scan lines 102..191)
    43 = 6000			linetab_lo = $6000      ; 192 bytes: low byte of each scan line's address
    44 = 60C0			linetab_hi = $60C0      ; 192 bytes: high byte
    45 				                        ; NOTE: kept ABOVE the framebuffers ($4000-$5E0F) and clear
    46 				                        ; of the program/descriptor tables ($2000-$3D59). The old
    47 				                        ; $3000 scratch collided with the param_*/p_* tables once the
    48 				                        ; code grew past $3000 (build_linetab clobbered the label
    49 				                        ; pointers -> draw_page_labels looped forever). Don't move it
    50 				                        ; back into program space.
    51
    52 = 0084			KBTOP   = 132           ; piano keyboard top scan line (shifted down 8 from 124 to
    53 				                        ; open a hint-line row at HINTSCAN; uses the slack below
    54 				                        ; the keyboard, so the keys stay full size)
    55 = 007C			HINTSCAN = 124          ; context-sensitive hint line, just above the keyboard
    56
    57 				; ----- zero-page pointers (free OS scratch $CB-$D1) -------------------------
    58 = 00CB			scrptr  = $CB           ; word: general dest pointer
    59 = 00CD			srcptr  = $CD           ; word: source (font / table / string)
    60 = 00CF			adjptr  = $CF           ; word: blit dest line / apply_adjust target
    61
    62 				; ----- work variables (free RAM, page 6) ------------------------------------
    63 = 0600			cur_param   = $0600     ; selected panel parameter 0..7
    64 = 0601			wave_idx    = $0601     ; 0..3  -> SQUARE/PURE/BUZZ/NOISE
    65 = 0602			volume      = $0602     ; 0..15 (envelope peak)
    66 = 0603			octave      = $0603     ; 0..4  (centre 2 = +0)
    67 = 0604			clock15     = $0604     ; clock/range mode: 0 NORMAL, 1 15KHZ, 2 16-BIT
    68 = 0605			prev_pressed= $0605
    69 = 0606			rep_timer   = $0606
    70 = 0607			note_idx    = $0607     ; current note 0..16, or $FF = none
    71 = 0608			prev_note   = $0608     ; last highlighted note
    72 = 0609			pressed     = $0609
    73 = 060A			edge        = $060A
    74 = 060B			delta       = $060B
    75 = 060C			tmpA        = $060C
    76 = 060D			tmp2        = $060D
    77 = 060E			cnt         = $060E
    78
    79 				; ADSR params (0..15)
    80 = 062C			atk_rate    = $062C
    81 = 062D			dec_rate    = $062D
    82 = 062E			sus_level   = $062E
    83 = 062F			rel_rate    = $062F
    84 = 0630			sus_clamp   = $0630
    85
    86 				; voices (4)
    87 = 0610			voice_note  = $0610     ; 4: absolute chromatic index
    88 = 0614			voice_level = $0614     ; 4: envelope level 0..15
    89 = 0618			held_voice  = $0618
    90 = 0619			last_voice  = $0619
    91 = 061C			vfreq       = $061C
    92 = 061D			vctl        = $061D
    93 = 061E			prev_held   = $061E
    94 = 0620			voice_phase = $0620     ; 4: PH_*
    95 = 0624			voice_count = $0624     ; 4: frames to next step
    96
    97 				; graphics scratch
    98 = 0640			xlo     = $0640
    99 = 0641			xhi     = $0641
   100 = 0642			py      = $0642
   101 = 0643			s0      = $0643
   102 = 0644			s1      = $0644
   103 = 0645			s_dy    = $0645
   104 = 0646			s_kc    = $0646
   105 = 0647			s_pc    = $0647
   106 = 0648			bc_code = $0648
   107 = 0649			bc_col  = $0649
   108 = 064A			bc_scan = $064A
   109 = 064B			bc_inv  = $064B
   110 = 064C			psi     = $064C
   111 = 064D			pcnt    = $064D
   112 = 064E			kcx     = $064E
   113 = 064F			kcy     = $064F
   114 = 0650			kfrm    = $0650
   115 = 0651			rw      = $0651
   116 = 0652			rh      = $0652
   117 = 0653			r_x     = $0653
   118 = 0654			r_xh    = $0654
   119 = 0655			r_y     = $0655
   120 = 0656			wxl     = $0656
   121 = 0657			wxh     = $0657
   122 = 0658			prev_param = $0658
   123 = 0659			prev_wave  = $0659
   124 = 065A			prev_vol   = $065A
   125 = 065B			prev_oct   = $065B
   126 = 065C			prev_atk   = $065C
   127 = 065D			prev_dec   = $065D
   128 = 065E			prev_sus   = $065E
   129 = 065F			prev_rel   = $065F
   130 = 0660			prev_clk   = $0660
   131 = 0661			pmode      = $0661      ; plot mode: 0 = set pixel, $FF = clear pixel
   132 = 0662			bc_mode    = $0662      ; blit mode: 0 = set (white on black), $FF = clear (black on white)
   133
   134 				; LFO (vibrato) state
   135 = 0663			lfo_rate    = $0663     ; 0..15 panel param
   136 = 0664			lfo_depth   = $0664     ; 0..15 panel param
   137 = 0665			lfo_level_u = $0665     ; unsigned 0..2*lfo_max triangle counter
   138 = 0666			lfo_dir     = $0666     ; +1 / $FF
   139 = 0667			lfo_count   = $0667     ; frames to next LFO step
   140 = 0668			lfo_offset  = $0668     ; signed pitch offset added to AUDF
   141 = 0669			lfo_max     = $0669
   142 = 066A			lfo_max2    = $066A
   143 				; draw_param scratch (NOT touched by draw_knob/num2)
   144 = 066B			dp_val      = $066B
   145 = 066C			dp_numcol   = $066C
   146 = 066D			dp_scan     = $066D
   147 				; DETUNE (fat pitch)
   148 = 066E			detune      = $066E     ; 0..15 panel param
   149 = 066F			detune_amt  = $066F     ; detune >> 2 (per-voice AUDF step)
   150 = 0670			prev_disp   = $0670     ; NPARAM bytes ($0670-$067B): last displayed value
   151 = 06C1			dvoff       = $06C1     ; 4 bytes: per-voice detune AUDF offset (moved up: prev_disp
   152 				                        ; grew with NPARAM and reached the old $0680 slot)
   153 				; arpeggiator
   154 = 0684			arp_rate    = $0684     ; 0 = off, 1..15 = step speed
   155 = 0685			arp_step    = $0685     ; pattern position 0..3
   156 = 0686			arp_timer   = $0686     ; frames to next arp step
   157 				; --- new feature work vars (allocated above the sequencer block at $06B5+ so
   158 				;     they stay clear of prev_disp, which grows with NPARAM) ---
   159 = 06B5			arp_mode    = $06B5     ; arpeggiator pattern: 0 UP, 1 DOWN, 2 MINOR, 3 OCTAVE
   160 = 06B6			porta_rate  = $06B6     ; portamento (glide): 0 off, 1..15 = AUDF step every N frames
   161 = 06B7			porta_timer = $06B7     ; frames to next glide step
   162 = 06B8			porta_cur   = $06B8     ; 4: current (gliding) AUDF per voice
   163 = 06BC			porta_step  = $06BC     ; 1 on frames where the glide advances one step
   164 = 06BD			drum_dec    = $06BD     ; DRUM param: 0 off, 1..15 = decay frames per level step
   165 = 06BE			drum_level  = $06BE     ; current drum envelope level (0 = drum channel free)
   166 = 06BF			drum_timer  = $06BF     ; frames to next drum decay step
   167 = 06C0			hpf_cut     = $06C0     ; HP filter: 0 off, 1..15 cutoff (uses ch3 as the clock)
   168 = 06C5			preset_slot = $06C5     ; PRESET param: selected patch slot 0..3
   169 = 06C6			prev_preset = $06C6     ; last slot (detect selection change -> load)
   170 = 06C7			preset_fp   = $06C7     ; previous fire-button state (edge detect for save)
   171 = 06C8			drum_key    = $06C8     ; previous drum-key ('1') state (edge detect for live hit)
   172 = 06C9			drum_beat   = $06C9     ; DRUMBEAT param: 0 off, 1..15 auto drum-machine rate
   173 = 06CA			dbeat_timer = $06CA     ; frames to next tempo beat
   174 = 06CB			dbeat_cnt   = $06CB     ; tempo beats remaining until the next auto drum hit
   175 = 0700			preset_bank = $0700     ; 4 slots x NSAVE bytes of saved params (page 7, free RAM)
   176 = 0687			sustain_ped = $0687     ; 1 while OPTION held -> notes don't release
   177 = 0688			vlimit      = $0688     ; active voice count: 4 (8-bit) or 2 (16-bit)
   178 = 0689			prev_clkm   = $0689     ; previous clock mode (detect change -> reset voices)
   179 = 068A			nlo         = $068A     ; 16-bit divider scratch (low/high)
   180 = 068B			nhi         = $068B
   181 = 068C			tempo       = $068C     ; sequencer tempo (0..15), page-2 param
   182 = 068D			page        = $068D     ; current panel page (cur_param / 12)
   183 = 068E			prev_page   = $068E
   184 = 068F			pg_base     = $068F     ; first param index of current page
   185 = 0690			pg_end      = $0690     ; one past last param index of current page
   186 				; step sequencer
   187 = 0691			seq_notes   = $0691     ; 16 steps: semitone 0..16, or $FF = rest
   188 = 06A1			seq_play    = $06A1     ; 0 stopped / 1 playing
   189 = 06A2			seq_rec     = $06A2     ; 0 / 1 record-armed
   190 = 06A3			seq_pos     = $06A3     ; play head 0..15
   191 = 06A4			seq_wpos    = $06A4     ; record write head 0..15
   192 = 06A5			seq_timer   = $06A5     ; frames to next step
   193 = 06A6			seq_prevn   = $06A6     ; previous note (record onset edge)
   194 = 06A7			prev_spos   = $06A7     ; last drawn play head (display diff)
   195 = 06A8			prev_splay  = $06A8
   196 = 06A9			prev_srec   = $06A9
   197 = 06AA			seq_dirty   = $06AA     ; 1 = step grid needs full redraw
   198 = 06AB			con_now     = $06AB     ; console keys pressed bits (active high)
   199 = 06AC			con_prev    = $06AC
   200 				; per-voice level meters (VU bars at the top, scan 9-13)
   201 = 06AD			prev_vmeter = $06AD     ; 4: last drawn level per voice (incremental redraw)
   202 = 06B1			dm_lo       = $06B1     ; meter draw scratch: lower envelope level
   203 = 06B2			dm_hi       = $06B2     ; meter draw scratch: higher envelope level
   204 = 06B3			seq_len     = $06B3     ; playback loop length = number of recorded steps (1..16)
   205 = 06B4			rec_latch   = $06B4     ; real-time record: note played since last step ($FF=none)
   206 = 06CC			hl_idx      = $06CC     ; DEMO: char index in current label to highlight
   207 = 06CD			dli_idx     = $06CD     ; DEMO: which colour band the next DLI sets (reset each frame)
   208 = 06CE			kbd_dir     = $06CE     ; arrow-key direction bits (mirrors STICK0: U/D/L/R) for update_input
   209 = 06CF			nav_prev    = $06CF     ; last nav-key KBCODE ($FF=none); edge-detect Tab/Return
   210 = 06D0			dp_zoff     = $06D0     ; draw_param: 1 = this param renders value 0 as "OFF"
   211 = 06D1			prev_hint   = $06D1     ; last drawn hint-line id ($FF = force redraw)
   212 = 06D2			pl_inv      = $06D2     ; print_label base inverse: $FF = focused param (inverse video)
   213 = 06D3			hl_shift    = $06D3     ; 1 = the shortcut char is a SHIFT key (drawn opposite video)
   214 = 06D4			saved_flash = $06D4     ; >0 = show "SAVED" over the PRESET name for this many frames
   215
   216 = 0013			NPARAM = 19             ; ...page2 16 HPF, 17 PRESET, 18 DRUMBEAT
   217 = 0011			NSAVE  = 17             ; params 0..16 are saved in a preset (PRESET itself is not)
   218 = 0010			PG2BASE = 16            ; first param index on page 2 (the third page)
   219 = 000C			PER_PAGE = 12
   220 = 0000			K_KNOB = 0              ; 0..15 value -> knob + 2-digit number
   221 = 0001			K_OCT  = 1              ; octave (0..4) -> knob + signed number
   222 = 0002			K_WAVE = 2              ; waveform icon selector
   223 = 0003			K_CLK  = 3              ; NORM|15K toggle
   224
   225 = 0000			PH_IDLE    = 0
   226 = 0001			PH_ATTACK  = 1
   227 = 0002			PH_DECAY   = 2
   228 = 0003			PH_SUSTAIN = 3
   229 = 0004			PH_RELEASE = 4
   230
   231 = 000F			REPDELAY = 15
   232 = 0004			REPFAST  = 4
   233 = 0004			DECAYRATE = 4
   234 = 0011			NUMKEYS  = 17
   235 = 0012			NSHORT   = 18           ; 13 plain (page 0 + DRUMBEAT) + 5 Shift (page 1/2)
   236
   237 				; --- DEMO: shortcut-letter highlight style (0 = inverse video, 1 = underline)
   238 = 0001			HL_STYLE = 1
   239
   240 				; --- DEMO: DLI colour palette (0 = cool blue/green, 1 = warm orange/gold)
   241 = 0000			PALETTE = 0
   242 				    .if PALETTE = 0
   243 = 0090			TITLE_COL = $90         ; band A (title row): blue hue, near-black bg + bright text
   244 = 00C0			PANEL_COL = $C0         ; band B (panel): green hue
   245 = 0000			KBD_COL   = $00         ; band C (keyboard): neutral white
   246 				    .else
   247 				TITLE_COL = $30         ; band A: red-orange hue
   248 				PANEL_COL = $F0         ; band B: gold hue
   249 				KBD_COL   = $00         ; band C: neutral white
   250 				    .endif
   251
   252 				; ----------------------------------------------------------------------------
   253 				        org $2000
   254
   255 				main
   256 FFFF> 2000-38FE> A9 01	        lda #1
   257 2002 8D F0 02		        sta CRSINH
   258 2005 A9 FF		        lda #$FF
   259 2007 8D DB 02		        sta NOCLIK
   260 200A A9 03		        lda #$03
   261 200C 8D 0F D2		        sta SKCTL
   262
   263 200F 20 A8 29		        jsr gr8_init            ; set up GR.8 + clear
   264
   265 				        ; parameter defaults
   266 2012 A9 00		        lda #0
   267 2014 8D 00 06		        sta cur_param
   268 2017 8D 01 06		        sta wave_idx
   269 201A 8D 04 06		        sta clock15
   270 201D 8D 05 06		        sta prev_pressed
   271 2020 A9 0A		        lda #10
   272 2022 8D 02 06		        sta volume
   273 2025 A9 02		        lda #2
   274 2027 8D 03 06		        sta octave
   275 202A A9 FF		        lda #$FF
   276 202C 8D 07 06		        sta note_idx
   277 202F 8D 08 06		        sta prev_note
   278 2032 8D 18 06		        sta held_voice
   279 2035 8D 1E 06		        sta prev_held
   280 2038 A9 0F		        lda #REPDELAY
   281 203A 8D 06 06		        sta rep_timer
   282 203D A9 03		        lda #3
   283 203F 8D 19 06		        sta last_voice
   284 2042 A2 03		        ldx #3
   285 2044			init_voice
   286 2044 A9 00		        lda #0
   287 2046 9D 14 06		        sta voice_level,x
   288 2049 9D 20 06		        sta voice_phase,x
   289 204C A9 01		        lda #1
   290 204E 9D 24 06		        sta voice_count,x
   291 2051 CA			        dex
   292 2052 10 F0		        bpl init_voice
   293 2054 A9 00		        lda #0
   294 2056 8D 2C 06		        sta atk_rate
   295 2059 A9 02		        lda #2
   296 205B 8D 2D 06		        sta dec_rate
   297 205E A9 08		        lda #8
   298 2060 8D 2E 06		        sta sus_level
   299 2063 A9 03		        lda #3
   300 2065 8D 2F 06		        sta rel_rate
   301
   302 2068 A9 08		        lda #8                  ; LFO defaults: mid rate, off (depth 0)
   303 206A 8D 63 06		        sta lfo_rate
   304 206D A9 00		        lda #0
   305 206F 8D 64 06		        sta lfo_depth
   306 2072 8D 65 06		        sta lfo_level_u
   307 2075 8D 68 06		        sta lfo_offset
   308 2078 A9 01		        lda #1
   309 207A 8D 66 06		        sta lfo_dir
   310 207D 8D 67 06		        sta lfo_count
   311 2080 A9 00		        lda #0
   312 2082 8D 6E 06		        sta detune
   313 2085 8D 84 06		        sta arp_rate
   314 2088 8D 85 06		        sta arp_step
   315 208B 8D B5 06		        sta arp_mode
   316 208E 8D B6 06		        sta porta_rate          ; portamento off; glide state cleared
   317 2091 8D B8 06		        sta porta_cur
   318 2094 8D B9 06		        sta porta_cur+1
   319 2097 8D BA 06		        sta porta_cur+2
   320 209A 8D BB 06		        sta porta_cur+3
   321 209D 8D BC 06		        sta porta_step
   322 20A0 8D BD 06		        sta drum_dec            ; drum off, idle
   323 20A3 8D BE 06		        sta drum_level
   324 20A6 8D C0 06		        sta hpf_cut             ; high-pass filter off
   325 20A9 8D C5 06		        sta preset_slot         ; preset slot 0, no load/fire pending
   326 20AC 8D C6 06		        sta prev_preset
   327 20AF 8D C7 06		        sta preset_fp
   328 20B2 8D C8 06		        sta drum_key
   329 20B5 8D C9 06		        sta drum_beat           ; auto drum-beat off
   330 20B8 8D 87 06		        sta sustain_ped
   331 20BB 8D 89 06		        sta prev_clkm
   332 20BE 8D 8D 06		        sta page
   333 20C1 8D A1 06		        sta seq_play
   334 20C4 8D A2 06		        sta seq_rec
   335 20C7 8D A3 06		        sta seq_pos
   336 20CA 8D A4 06		        sta seq_wpos
   337 20CD 8D AC 06		        sta con_prev
   338 20D0 A9 08		        lda #8
   339 20D2 8D 8C 06		        sta tempo
   340 20D5 A9 01		        lda #1
   341 20D7 8D B7 06		        sta porta_timer
   342 20DA 8D BF 06		        sta drum_timer
   343 20DD 8D CA 06		        sta dbeat_timer
   344 20E0 8D CB 06		        sta dbeat_cnt
   345 20E3 A9 FF		        lda #$FF
   346 20E5 8D 8E 06		        sta prev_page           ; force first-frame page render
   347 20E8 8D D1 06		        sta prev_hint           ; force first-frame hint-line draw
   348 20EB 8D A6 06		        sta seq_prevn
   349 20EE 8D A7 06		        sta prev_spos
   350 20F1 A2 0F		        ldx #15                 ; clear sequencer pattern
   351 20F3 A9 FF		        lda #$FF
   352 20F5			seq_init
   353 20F5 9D 91 06		        sta seq_notes,x
   354 20F8 CA			        dex
   355 20F9 10 FA		        bpl seq_init
   356 20FB A9 01		        lda #1
   357 20FD 8D 86 06		        sta arp_timer
   358 2100 8D A5 06		        sta seq_timer
   359 2103 A9 10		        lda #16                  ; default loop length (empty pattern = silence)
   360 2105 8D B3 06		        sta seq_len
   361 2108 A9 FF		        lda #$FF
   362 210A 8D B4 06		        sta rec_latch
   363 210D A2 03		        ldx #3                   ; VU meters start empty (match cleared screen)
   364 210F A9 00		        lda #0
   365 2111			vm_init
   366 2111 9D AD 06		        sta prev_vmeter,x
   367 2114 CA			        dex
   368 2115 10 FA		        bpl vm_init
   369
   370 2117 A9 FF		        lda #$FF                 ; force first-frame redraw of every widget
   371 2119 8D 58 06		        sta prev_param
   372 211C A2 12		        ldx #NPARAM-1
   373 211E			init_prev
   374 211E 9D 70 06		        sta prev_disp,x
   375 2121 CA			        dex
   376 2122 10 FA		        bpl init_prev
   377
   378 2124 A2 43		        ldx #4*NSAVE-1           ; copy factory presets into the editable bank
   379 2126			preset_copy
   380 2126 BD DA 26		        lda preset_factory,x
   381 2129 9D 00 07		        sta preset_bank,x
   382 212C CA			        dex
   383 212D 10 F7		        bpl preset_copy
   384
   385 212F 20 0A 2D		        jsr draw_static_gfx     ; panel labels + piano keyboard (once)
   386
   387 2132			loop
   388 2132 20 42 29		        jsr wait_vbl            ; sync, then draw starting at the frame top
   389 2135 A9 00		        lda #0
   390 2137 8D CD 06		        sta dli_idx             ; DEMO: restart colour-band sequence for this frame
   391 213A 85 4D		        sta ATRACT
   392 				        ; voice count: 16-bit mode (clock 2) uses 2 voices, else 4
   393 213C A2 04		        ldx #4
   394 213E AD 04 06		        lda clock15
   395 2141 C9 02		        cmp #2
   396 2143 D0 02		        bne lp_vl
   397 2145 A2 02		        ldx #2
   398 2147			lp_vl
   399 2147 8E 88 06		        stx vlimit
   400 				        ; reset all voices when the clock/range mode changes (avoid stuck notes)
   401 214A AD 04 06		        lda clock15
   402 214D CD 89 06		        cmp prev_clkm
   403 2150 F0 21		        beq lp_same
   404 2152 8D 89 06		        sta prev_clkm
   405 2155 A9 FF		        lda #$FF                ; clock mode changed -> force a panel redraw so the
   406 2157 8D 8E 06		        sta prev_page           ; 16-bit inert-strikes refresh on the current page
   407 215A A2 03		        ldx #3
   408 215C			lp_clr
   409 215C A9 00		        lda #0
   410 215E 9D 14 06		        sta voice_level,x
   411 2161 9D 20 06		        sta voice_phase,x
   412 2164 CA			        dex
   413 2165 10 F5		        bpl lp_clr
   414 2167 A9 FF		        lda #$FF
   415 2169 8D 18 06		        sta held_voice
   416 216C AE 88 06		        ldx vlimit              ; next note -> voice 0 (and keep last_voice valid
   417 216F CA			        dex                     ; for the new vlimit after a mode change)
   418 2170 8E 19 06		        stx last_voice
   419 2173			lp_same
   420 2173 20 A3 21		        jsr read_keyboard
   421 2176 20 CD 21		        jsr read_console
   422 2179 20 07 22		        jsr read_navkeys        ; arrows -> kbd_dir; Tab = page flip; Return = save
   423 217C 20 B9 24		        jsr trigger_voices
   424 217F 20 FC 25		        jsr drum_key_tick       ; '1' key -> live drum hit (edge)
   425 2182 20 01 24		        jsr update_input
   426 2185 20 44 26		        jsr preset_tick         ; PRESET knob -> load; fire on PRESET -> save
   427 2188 20 10 33		        jsr saved_flash_tick    ; tick the "SAVED" flash on the PRESET cell
   428 218B 20 49 29		        jsr lfo_tick
   429 218E 20 45 25		        jsr arp_tick
   430 2191 20 0A 23		        jsr seq_tick
   431 2194 20 17 26		        jsr drum_beat_tick      ; DRUMBEAT -> auto drum-machine pulse (tempo-synced)
   432 2197 20 1E 27		        jsr update_sound
   433 219A 20 CA 25		        jsr drum_tick           ; drum overrides channel 4 while a hit rings
   434 219D 20 10 2E		        jsr update_display
   435 21A0 4C 32 21		        jmp loop
   436
   437 				; ============================================================================
   438 				;  ENGINE  (unchanged from the text-mode version)
   439 				; ============================================================================
   440 21A3			read_keyboard
   441 21A3 AD 0F D2		        lda SKSTAT
   442 21A6 29 04		        and #$04
   443 21A8 D0 13		        bne rk_none
   444 21AA AD 09 D2		        lda KBCODE
   445 21AD 29 3F		        and #$3F
   446 21AF A2 10		        ldx #NUMKEYS-1
   447 21B1			rk_search
   448 21B1 DD 95 36		        cmp key_scan,x
   449 21B4 F0 13		        beq rk_found
   450 21B6 CA			        dex
   451 21B7 10 F8		        bpl rk_search
   452 21B9 C9 1F		        cmp #$1F                ; not a pitched key: '1' = the DRUM trigger key
   453 21BB F0 06		        beq rk_drum
   454 21BD			rk_none
   455 21BD A9 FF		        lda #$FF
   456 21BF 8D 07 06		        sta note_idx
   457 21C2 60			        rts
   458 21C3			rk_drum
   459 21C3 A9 FD		        lda #$FD                ; $FD = "drum note": flows through live-hit,
   460 21C5 8D 07 06		        sta note_idx            ; sequencer record (drum lane) and playback
   461 21C8 60			        rts
   462 21C9			rk_found
   463 21C9 8E 07 06		        stx note_idx
   464 21CC 60			        rts
   465
   466 				; Console keys (CONSOL $D01F, active low): OPTION (bit2) = sustain pedal (level),
   467 				; START (bit0) = play/stop, SELECT (bit1) = record arm (edge-triggered).
   468 				; Independent of the scanned key matrix, so they work while a note key is down.
   469 21CD			read_console
   470 21CD AD 1F D0		        lda CONSOL
   471 21D0 49 07		        eor #$07                ; now 1 = pressed
   472 21D2 29 07		        and #$07
   473 21D4 8D AB 06		        sta con_now
   474 21D7 29 04		        and #$04                ; OPTION -> sustain pedal (level)
   475 21D9 F0 04		        beq rc_noopt
   476 21DB A9 01		        lda #1
   477 21DD D0 02		        bne rc_setopt
   478 21DF			rc_noopt
   479 21DF A9 00		        lda #0
   480 21E1			rc_setopt
   481 21E1 8D 87 06		        sta sustain_ped
   482 21E4 AD AC 06		        lda con_prev            ; edges = now & ~prev
   483 21E7 49 FF		        eor #$FF
   484 21E9 2D AB 06		        and con_now
   485 21EC 8D 0C 06		        sta tmpA
   486 21EF 29 01		        and #$01                ; START edge -> toggle play
   487 21F1 F0 03		        beq rc_nostart
   488 21F3 20 BB 22		        jsr seq_toggle_play
   489 21F6			rc_nostart
   490 21F6 AD 0C 06		        lda tmpA
   491 21F9 29 02		        and #$02                ; SELECT edge -> toggle record
   492 21FB F0 03		        beq rc_nosel
   493 21FD 20 D0 22		        jsr seq_toggle_rec
   494 2200			rc_nosel
   495 2200 AD AB 06		        lda con_now
   496 2203 8D AC 06		        sta con_prev
   497 2206 60			        rts
   498
   499 				; Navigation keys (laptop play, no joystick needed). The Atari arrow keys are
   500 				; Ctrl + the -/=/+/* keys; Ctrl sets KBCODE bit6 ($40), so they read UNMASKED as
   501 				; $4E/$4F/$46/$47 (read_keyboard masks #$3F for the note matrix and ignores
   502 				; these). Arrows set kbd_dir level bits -> update_input gives them the same
   503 				; nav/adjust/auto-repeat as the joystick. Tab/Return are edge-triggered via nav_prev.
   504 				;   Up=$4E Down=$4F Left=$46 Right=$47   Tab=$2C (page flip)   Return=$0C (save)
   505 2207			read_navkeys
   506 2207 A9 00		        lda #0
   507 2209 8D CE 06		        sta kbd_dir
   508 220C AD 0F D2		        lda SKSTAT
   509 220F 29 04		        and #$04
   510 2211 D0 74		        bne rn_none             ; no key down
   511 2213 AD 09 D2		        lda KBCODE
   512 2216 C9 4E		        cmp #$4E                ; UP    (Ctrl+MINUS)
   513 2218 D0 08		        bne rn_n1
   514 221A A9 01		        lda #$01
   515 221C 8D CE 06		        sta kbd_dir
   516 221F 4C 80 22		        jmp rn_seen
   517 2222			rn_n1
   518 2222 C9 4F		        cmp #$4F                ; DOWN  (Ctrl+EQUALS)
   519 2224 D0 08		        bne rn_n2
   520 2226 A9 02		        lda #$02
   521 2228 8D CE 06		        sta kbd_dir
   522 222B 4C 80 22		        jmp rn_seen
   523 222E			rn_n2
   524 222E C9 46		        cmp #$46                ; LEFT  (Ctrl+PLUS)
   525 2230 D0 08		        bne rn_n3
   526 2232 A9 04		        lda #$04
   527 2234 8D CE 06		        sta kbd_dir
   528 2237 4C 80 22		        jmp rn_seen
   529 223A			rn_n3
   530 223A C9 47		        cmp #$47                ; RIGHT (Ctrl+ASTERISK)
   531 223C D0 08		        bne rn_n4
   532 223E A9 08		        lda #$08
   533 2240 8D CE 06		        sta kbd_dir
   534 2243 4C 80 22		        jmp rn_seen
   535 2246			rn_n4
   536 2246 C9 2C		        cmp #$2C                ; Tab -> cycle page (edge only, no repeat)
   537 2248 D0 0D		        bne rn_n5
   538 224A AE CF 06		        ldx nav_prev
   539 224D E0 2C		        cpx #$2C
   540 224F F0 2F		        beq rn_seen
   541 2251 20 8D 22		        jsr page_flip
   542 2254 4C 80 22		        jmp rn_seen
   543 2257			rn_n5
   544 2257 C9 0C		        cmp #$0C                ; Return -> save preset (joystick-fire substitute)
   545 2259 D0 0D		        bne rn_short
   546 225B AE CF 06		        ldx nav_prev
   547 225E E0 0C		        cpx #$0C
   548 2260 F0 1E		        beq rn_seen
   549 2262 20 AA 22		        jsr nav_save_preset
   550 2265 4C 80 22		        jmp rn_seen
   551 2268			rn_short
   552 				        ; letter shortcut: a free letter that's underlined in a param's label jumps
   553 				        ; the selection straight to that param (A still holds raw KBCODE here). Only
   554 				        ; the 6 params whose letter is UNIQUE have an entry (see shortcut_kc).
   555 2268 A2 11		        ldx #NSHORT-1
   556 226A			rn_short_l
   557 226A DD D6 37		        cmp shortcut_kc,x
   558 226D F0 06		        beq rn_short_hit
   559 226F CA			        dex
   560 2270 10 F8		        bpl rn_short_l
   561 2272 4C 80 22		        jmp rn_seen             ; not a shortcut key
   562 2275			rn_short_hit
   563 2275 CD CF 06		        cmp nav_prev            ; A = this key = shortcut_kc[x]; held -> no re-jump
   564 2278 F0 06		        beq rn_seen
   565 227A BD E8 37		        lda shortcut_param,x    ; jump (cur_param drives the page too)
   566 227D 8D 00 06		        sta cur_param
   567 2280			rn_seen
   568 2280 AD 09 D2		        lda KBCODE              ; remember this frame's key for next-frame edge detect
   569 2283 8D CF 06		        sta nav_prev
   570 2286 60			        rts
   571 2287			rn_none
   572 2287 A9 FF		        lda #$FF
   573 2289 8D CF 06		        sta nav_prev
   574 228C 60			        rts
   575
   576 				; Tab: jump the selection to the first param of the next page (0->1->2->0).
   577 				; update_display derives the page from cur_param, so this is all it takes.
   578 228D			page_flip
   579 228D AD 00 06		        lda cur_param
   580 2290 C9 0C		        cmp #PER_PAGE           ; page 0 (0..11) -> page 1
   581 2292 90 0A		        bcc pf_to1
   582 2294 C9 10		        cmp #PG2BASE            ; page 1 (12..15) -> page 2
   583 2296 90 0C		        bcc pf_to2
   584 2298 A9 00		        lda #0                  ; page 2 -> wrap to page 0
   585 229A 8D 00 06		        sta cur_param
   586 229D 60			        rts
   587 229E			pf_to1
   588 229E A9 0C		        lda #PER_PAGE
   589 22A0 8D 00 06		        sta cur_param
   590 22A3 60			        rts
   591 22A4			pf_to2
   592 22A4 A9 10		        lda #PG2BASE
   593 22A6 8D 00 06		        sta cur_param
   594 22A9 60			        rts
   595
   596 				; Return mirrors the joystick fire button: save the patch, but only while the
   597 				; PRESET param is selected. Keep prev_preset in sync so preset_tick won't reload.
   598 22AA			nav_save_preset
   599 22AA AD 00 06		        lda cur_param
   600 22AD C9 11		        cmp #17                 ; PRESET param index
   601 22AF D0 09		        bne nsp_done
   602 22B1 20 8C 26		        jsr preset_save
   603 22B4 AD C5 06		        lda preset_slot
   604 22B7 8D C6 06		        sta prev_preset
   605 22BA			nsp_done
   606 22BA 60			        rts
   607
   608 22BB			seq_toggle_play
   609 22BB AD A1 06		        lda seq_play
   610 22BE 49 01		        eor #1
   611 22C0 8D A1 06		        sta seq_play
   612 22C3 F0 0A		        beq stp_done            ; just stopped
   613 22C5 A9 00		        lda #0                  ; just started: from step 0, fire soon
   614 22C7 8D A3 06		        sta seq_pos
   615 22CA A9 01		        lda #1
   616 22CC 8D A5 06		        sta seq_timer
   617 22CF			stp_done
   618 22CF 60			        rts
   619
   620 				; SELECT = real-time record: arming clears the pattern and STARTS the clock so
   621 				; you just play in time (the live note is captured on the step under the head).
   622 				; Disarming punches out but keeps the loop playing. To step-enter instead, stop
   623 				; the clock (START) while still armed -> rec + stopped writes one step per key.
   624 22D0			seq_toggle_rec
   625 22D0 AD A2 06		        lda seq_rec
   626 22D3 49 01		        eor #1
   627 22D5 8D A2 06		        sta seq_rec
   628 22D8 F0 2F		        beq str_done            ; just disarmed -> punch out, keep playing
   629 22DA A2 0F		        ldx #15                 ; arm: clear the pattern
   630 22DC A9 FF		        lda #$FF
   631 22DE			str_clr
   632 22DE 9D 91 06		        sta seq_notes,x
   633 22E1 CA			        dex
   634 22E2 10 FA		        bpl str_clr
   635 22E4 A9 00		        lda #0
   636 22E6 8D A4 06		        sta seq_wpos
   637 22E9 8D B3 06		        sta seq_len             ; (step entry grows this; real-time loops 16)
   638 22EC 8D A3 06		        sta seq_pos             ; record from step 0
   639 22EF A9 FF		        lda #$FF
   640 22F1 8D B4 06		        sta rec_latch
   641 22F4 A9 01		        lda #1
   642 22F6 8D AA 06		        sta seq_dirty
   643 22F9 8D A1 06		        sta seq_play            ; run the clock -> real-time record
   644 22FC A9 10		        lda #16                 ; one full step of lead-in so step 0 is playable
   645 22FE 38			        sec
   646 22FF ED 8C 06		        sbc tempo
   647 2302 0A			        asl
   648 2303 18			        clc
   649 2304 69 02		        adc #2
   650 2306 8D A5 06		        sta seq_timer
   651 2309			str_done
   652 2309 60			        rts
   653
   654 				; ----------------------------------------------------------------------------
   655 				;  Step sequencer: record note onsets into a 16-step pattern; when playing,
   656 				;  step at the TEMPO rate and trigger each step's note via trigger_note.
   657 				; ----------------------------------------------------------------------------
   658 230A			seq_tick
   659 230A AD A2 06		        lda seq_rec             ; --- record: detect a new note onset ---
   660 230D F0 40		        beq sq_norec
   661 230F AD 07 06		        lda note_idx
   662 2312 C9 FF		        cmp #$FF
   663 2314 F0 33		        beq sq_recdone
   664 2316 CD A6 06		        cmp seq_prevn
   665 2319 F0 2E		        beq sq_recdone          ; same held note -> not a new onset
   666 231B AC A1 06		        ldy seq_play
   667 231E D0 23		        bne sq_latch            ; PLAYING+REC = real-time: latch; clock writes it
   668 2320 AE A4 06		        ldx seq_wpos            ; STOPPED+REC = step entry: write here, advance
   669 2323 9D 91 06		        sta seq_notes,x
   670 2326 E8			        inx
   671 2327 EC B3 06		        cpx seq_len             ; grow loop length to the furthest step filled
   672 232A 90 03		        bcc sq_nolen
   673 232C 8E B3 06		        stx seq_len
   674 232F			sq_nolen
   675 232F E0 10		        cpx #16
   676 2331 D0 02		        bne sq_wok
   677 2333 A2 00		        ldx #0
   678 2335			sq_wok
   679 2335 8E A4 06		        stx seq_wpos
   680 2338 A9 01		        lda #1
   681 233A 8D AA 06		        sta seq_dirty
   682 233D AD 07 06		        lda note_idx
   683 2340 4C 49 23		        jmp sq_recdone
   684 2343			sq_latch
   685 2343 8D B4 06		        sta rec_latch           ; real-time: remember the onset for the clock
   686 2346 AD 07 06		        lda note_idx
   687 2349			sq_recdone
   688 2349 8D A6 06		        sta seq_prevn
   689 234C 4C 57 23		        jmp sq_play
   690 234F			sq_norec
   691 234F A9 FF		        lda #$FF
   692 2351 8D A6 06		        sta seq_prevn
   693 2354 8D B4 06		        sta rec_latch           ; not armed -> drop any pending latch
   694 2357			sq_play
   695 2357 AD A1 06		        lda seq_play            ; --- play / real-time clock ---
   696 235A D0 01		        bne sq_playing
   697 235C 60			        rts
   698 235D			sq_playing
   699 235D CE A5 06		        dec seq_timer
   700 2360 F0 01		        beq sq_step
   701 2362 60			        rts
   702 2363			sq_step
   703 2363 A9 10		        lda #16                 ; reload: interval = (16-tempo)*2 + 2 frames
   704 2365 38			        sec
   705 2366 ED 8C 06		        sbc tempo
   706 2369 0A			        asl
   707 236A 18			        clc
   708 236B 69 02		        adc #2
   709 236D 8D A5 06		        sta seq_timer
   710 2370 AE A3 06		        ldx seq_pos             ; play this step's EXISTING note (timing reference)
   711 2373 BD 91 06		        lda seq_notes,x
   712 2376 C9 FE		        cmp #$FE                ; TIE -> a held note continues: do NOT re-strike,
   713 2378 F0 3F		        beq sq_nostep           ; let the sustaining voice ring on (no blips)
   714 237A C9 FD		        cmp #$FD                ; DRUM hit step
   715 237C D0 06		        bne sq_nodrum
   716 237E 20 B2 25		        jsr drum_hit
   717 2381 4C B9 23		        jmp sq_nostep
   718 2384			sq_nodrum
   719 2384 C9 FF		        cmp #$FF
   720 2386 D0 14		        bne sq_playnote
   721 2388 AD A2 06		        lda seq_rec             ; rest step -> silence the gap by releasing the held
   722 238B F0 07		        beq sq_restrel          ; voice. Playback always releases; while recording,
   723 238D AD 07 06		        lda note_idx            ; keep a LIVE-held note (don't cut your own playing)
   724 2390 C9 FF		        cmp #$FF                ; but still release when only monitoring (no key down).
   725 2392 D0 25		        bne sq_nostep
   726 2394			sq_restrel
   727 2394 A9 FF		        lda #$FF
   728 2396 8D 18 06		        sta held_voice
   729 2399 4C B9 23		        jmp sq_nostep
   730 239C			sq_playnote
   731 239C 8D 0C 06		        sta tmpA
   732 239F AD A2 06		        lda seq_rec             ; while RECORDING, don't let the clock re-strike a note
   733 23A2 F0 08		        beq sq_pn_go            ; you're already holding live -> that would double it
   734 23A4 AD 0C 06		        lda tmpA                ; (two unison voices) and re-attack your sustained note
   735 23A7 CD 07 06		        cmp note_idx            ; every loop. note_idx is the live semitone; tmpA is the
   736 23AA F0 0D		        beq sq_nostep           ; step's. Same -> skip the clock trigger, keep monitoring.
   737 23AC			sq_pn_go
   738 23AC AC 03 06		        ldy octave
   739 23AF B9 C8 35		        lda octave_base,y
   740 23B2 18			        clc
   741 23B3 6D 0C 06		        adc tmpA
   742 23B6 20 E9 24		        jsr trigger_note
   743 23B9			sq_nostep
   744 23B9 AD A2 06		        lda seq_rec             ; real-time: capture the live note into this step
   745 23BC F0 2E		        beq sq_adv
   746 23BE AD B4 06		        lda rec_latch           ; a NEW onset latched since the last tick?
   747 23C1 C9 FF		        cmp #$FF
   748 23C3 D0 17		        bne sq_cap              ; yes -> write the struck note (re-attack)
   749 23C5 AD 07 06		        lda note_idx            ; else still holding the same key?
   750 23C8 C9 FF		        cmp #$FF
   751 23CA F0 20		        beq sq_adv              ; nothing held -> leave step (rest)
   752 23CC C9 FD		        cmp #$FD                ; a HELD drum key is a one-shot, not a sustain: don't
   753 23CE F0 1C		        beq sq_adv              ; smear it into ties (leave following steps as rests)
   754 23D0 AE A3 06		        ldx seq_pos             ; held pitch -> extend with a TIE, but ONLY into a
   755 23D3 BD 91 06		        lda seq_notes,x         ; REST. On a later loop this step already holds the
   756 23D6 C9 FF		        cmp #$FF                ; struck note (or its ties); rewriting it as a tie
   757 23D8 D0 12		        bne sq_adv              ; would wipe the attack and play back silent. Leave it.
   758 23DA A9 FE		        lda #$FE                ; held pitch over a rest -> TIE (sustains on playback)
   759 23DC			sq_cap
   760 23DC AE A3 06		        ldx seq_pos
   761 23DF 9D 91 06		        sta seq_notes,x
   762 23E2 A9 01		        lda #1
   763 23E4 8D AA 06		        sta seq_dirty
   764 23E7 A9 FF		        lda #$FF
   765 23E9 8D B4 06		        sta rec_latch           ; consume the latch
   766 23EC			sq_adv
   767 23EC EE A3 06		        inc seq_pos             ; wrap at the recorded length (or 16 if empty)
   768 23EF AE B3 06		        ldx seq_len
   769 23F2 D0 02		        bne sq_lim
   770 23F4 A2 10		        ldx #16
   771 23F6			sq_lim
   772 23F6 EC A3 06		        cpx seq_pos
   773 23F9 D0 05		        bne sq_done
   774 23FB A9 00		        lda #0
   775 23FD 8D A3 06		        sta seq_pos
   776 2400			sq_done
   777 2400 60			        rts
   778
   779 				; Unified directional input: up/down navigate, left/right adjust. ALL FOUR now
   780 				; auto-repeat off one rep_timer (was: U/D edge-only, L/R repeated). Arrow keys are
   781 				; merged in via kbd_dir (read_navkeys) so they drive the exact same path.
   782 2401			update_input
   783 2401 AD 78 02		        lda STICK0
   784 2404 29 0F		        and #$0F
   785 2406 49 0F		        eor #$0F                ; bit0=up bit1=down bit2=left bit3=right (active high)
   786 2408 0D CE 06		        ora kbd_dir             ; merge arrow keys -> identical nav/adjust/repeat
   787 240B 8D 09 06		        sta pressed
   788 240E AD 05 06		        lda prev_pressed
   789 2411 49 FF		        eor #$FF
   790 2413 2D 09 06		        and pressed
   791 2416 8D 0A 06		        sta edge                ; freshly-pressed directions this frame
   792 2419 AD 09 06		        lda pressed
   793 241C 29 0F		        and #$0F
   794 241E D0 08		        bne ui_held
   795 2420 A9 0F		        lda #REPDELAY           ; nothing held -> re-arm the initial delay
   796 2422 8D 06 06		        sta rep_timer
   797 2425 4C 89 24		        jmp ui_done
   798 2428			ui_held
   799 2428 AD 0A 06		        lda edge
   800 242B 29 0F		        and #$0F
   801 242D D0 0D		        bne ui_fresh            ; a fresh press -> act immediately
   802 242F CE 06 06		        dec rep_timer
   803 2432 D0 55		        bne ui_done             ; still counting down -> no action this frame
   804 2434 A9 04		        lda #REPFAST            ; timer expired -> repeat at the fast rate
   805 2436 8D 06 06		        sta rep_timer
   806 2439 4C 41 24		        jmp ui_act
   807 243C			ui_fresh
   808 243C A9 0F		        lda #REPDELAY
   809 243E 8D 06 06		        sta rep_timer
   810 2441			ui_act
   811 2441 AD 09 06		        lda pressed             ; UP -> previous param (wrap)
   812 2444 29 01		        and #$01
   813 2446 F0 0A		        beq ui_a_nodn
   814 2448 CE 00 06		        dec cur_param
   815 244B 10 05		        bpl ui_a_nodn
   816 244D A9 12		        lda #NPARAM-1
   817 244F 8D 00 06		        sta cur_param
   818 2452			ui_a_nodn
   819 2452 AD 09 06		        lda pressed             ; DOWN -> next param (wrap)
   820 2455 29 02		        and #$02
   821 2457 F0 0F		        beq ui_a_nolr
   822 2459 EE 00 06		        inc cur_param
   823 245C AD 00 06		        lda cur_param
   824 245F C9 13		        cmp #NPARAM
   825 2461 D0 05		        bne ui_a_nolr
   826 2463 A9 00		        lda #0
   827 2465 8D 00 06		        sta cur_param
   828 2468			ui_a_nolr
   829 2468 AD 09 06		        lda pressed             ; LEFT -> value -1
   830 246B 29 04		        and #$04
   831 246D F0 0B		        beq ui_a_tryr
   832 246F A9 FF		        lda #$FF
   833 2471 8D 0B 06		        sta delta
   834 2474 20 90 24		        jsr apply_adjust
   835 2477 4C 89 24		        jmp ui_done
   836 247A			ui_a_tryr
   837 247A AD 09 06		        lda pressed             ; RIGHT -> value +1
   838 247D 29 08		        and #$08
   839 247F F0 08		        beq ui_done
   840 2481 A9 01		        lda #$01
   841 2483 8D 0B 06		        sta delta
   842 2486 20 90 24		        jsr apply_adjust
   843 2489			ui_done
   844 2489 AD 09 06		        lda pressed
   845 248C 8D 05 06		        sta prev_pressed
   846 248F 60			        rts
   847
   848 2490			apply_adjust
   849 2490 AE 00 06		        ldx cur_param
   850 2493 BD A6 36		        lda param_lo,x
   851 2496 85 CF		        sta adjptr
   852 2498 BD B9 36		        lda param_hi,x
   853 249B 85 D0		        sta adjptr+1
   854 249D A0 00		        ldy #0
   855 249F B1 CF		        lda (adjptr),y
   856 24A1 18			        clc
   857 24A2 6D 0B 06		        adc delta
   858 24A5 30 0B		        bmi aa_lo
   859 24A7 DD DF 36		        cmp param_maxp1,x
   860 24AA 90 08		        bcc aa_store
   861 24AC BD CC 36		        lda param_max,x
   862 24AF 4C B4 24		        jmp aa_store
   863 24B2			aa_lo
   864 24B2 A9 00		        lda #0
   865 24B4			aa_store
   866 24B4 A0 00		        ldy #0
   867 24B6 91 CF		        sta (adjptr),y
   868 24B8 60			        rts
   869
   870 24B9			trigger_voices
   871 24B9 AD 84 06		        lda arp_rate
   872 24BC D0 14		        bne tv_done             ; ARP on -> arp_tick triggers notes instead
   873 24BE AD 07 06		        lda note_idx
   874 24C1 C9 FD		        cmp #$FD                ; $FD(drum)/$FE/$FF are not pitched notes -> no
   875 24C3 90 0E		        bcc tv_keydown          ; voice trigger (the drum is handled separately)
   876 				        ; no pitched live key down. Always clear the live-key edge so the SAME
   877 				        ; note can re-fire on its next press. While the clock runs (PLAYBACK *or*
   878 				        ; real-time RECORD) leave held_voice alone: the sequencer owns the gate, so
   879 				        ; a stepped note sustains its whole step AND overdub playback is audible
   880 				        ; while armed (REC used to force-release here -> near-silent monitoring).
   881 24C5 A9 FF		        lda #$FF
   882 24C7 8D 1E 06		        sta prev_held
   883 24CA AC A1 06		        ldy seq_play            ; test the clock WITHOUT disturbing A (= $FF)
   884 24CD D0 03		        bne tv_done             ; clock running -> sequencer manages the voice gate
   885 24CF 8D 18 06		        sta held_voice          ; stopped -> release everything (A = $FF)
   886 24D2			tv_done
   887 24D2 60			        rts
   888 24D3			tv_keydown
   889 24D3 CD 1E 06		        cmp prev_held
   890 24D6 F0 FA		        beq tv_done
   891 24D8 8D 1E 06		        sta prev_held
   892 24DB AC 03 06		        ldy octave              ; abs note = octave base + semitone
   893 24DE B9 C8 35		        lda octave_base,y
   894 24E1 18			        clc
   895 24E2 6D 07 06		        adc note_idx
   896 24E5 20 E9 24		        jsr trigger_note
   897 24E8 60			        rts
   898
   899 				; trigger_note: A = absolute chromatic index -> grab next voice, start attack
   900 24E9			trigger_note
   901 24E9 C9 41		        cmp #65                 ; clamp to chromatic table (0..64)
   902 24EB 90 02		        bcc tn_ok
   903 24ED A9 40		        lda #64
   904 24EF			tn_ok
   905 24EF 8D 0C 06		        sta tmpA
   906 24F2 AD B6 06		        lda porta_rate          ; portamento on -> MONOPHONIC glide on voice 0
   907 24F5 F0 13		        beq tn_alloc            ; (the new note slides from the previous pitch)
   908 24F7 A2 00		        ldx #0
   909 24F9 BD 20 06		        lda voice_phase,x
   910 24FC D0 2A		        bne tn_setnote          ; voice 0 already sounding -> glide from it
   911 24FE AC 0C 06		        ldy tmpA                ; voice 0 idle -> snap glide origin to target
   912 2501 B9 87 35		        lda chromatic,y         ; (so the first note doesn't swoop in)
   913 2504 8D B8 06		        sta porta_cur
   914 2507 4C 28 25		        jmp tn_setnote
   915 250A			tn_alloc
   916 250A AE 19 06		        ldx last_voice
   917 250D E8			        inx
   918 250E EC 88 06		        cpx vlimit              ; wrap when x >= vlimit (16-bit drops 4->2, so a
   919 2511 B0 10		        bcs tn_wrap0            ; stale last_voice of 2/3 must still wrap)
   920 2513 E0 03		        cpx #3                  ; reserve voice 3 (channel 4) for the drum in 8-bit
   921 2515 D0 0E		        bne tn_nowrap           ; mode when DRUM is enabled, else a melody note here
   922 2517 AD 04 06		        lda clock15             ; gets stomped by the drum's noise -> sounds wrong.
   923 251A C9 02		        cmp #2                  ; 16-bit: voice 3 doesn't exist (vlimit=2) -> n/a
   924 251C F0 07		        beq tn_nowrap
   925 251E AD BD 06		        lda drum_dec            ; DRUM off -> voice 3 is a normal melody voice
   926 2521 F0 02		        beq tn_nowrap
   927 2523			tn_wrap0
   928 2523 A2 00		        ldx #0                  ; skip voice 3 -> melody uses voices 0..2
   929 2525			tn_nowrap
   930 2525 8E 19 06		        stx last_voice
   931 2528			tn_setnote
   932 2528 AD 0C 06		        lda tmpA
   933 252B 9D 10 06		        sta voice_note,x
   934 252E A9 00		        lda #0
   935 2530 9D 14 06		        sta voice_level,x
   936 2533 A9 01		        lda #PH_ATTACK
   937 2535 9D 20 06		        sta voice_phase,x
   938 2538 AD 2C 06		        lda atk_rate
   939 253B 18			        clc
   940 253C 69 01		        adc #1
   941 253E 9D 24 06		        sta voice_count,x
   942 2541 8E 18 06		        stx held_voice
   943 2544 60			        rts
   944
   945 				; ----------------------------------------------------------------------------
   946 				;  Arpeggiator: while a key is held and ARP > 0, retrigger a chord pattern
   947 				;  (root, +4, +7, +12) from the held note, one step every (16-rate) frames.
   948 				; ----------------------------------------------------------------------------
   949 2545			arp_tick
   950 2545 AD 84 06		        lda arp_rate
   951 2548 D0 01		        bne at_on
   952 254A 60			        rts                     ; ARP off
   953 254B			at_on
   954 254B AD 07 06		        lda note_idx
   955 254E C9 FF		        cmp #$FF
   956 2550 D0 10		        bne at_held
   957 2552 A9 00		        lda #0                  ; no key -> idle; let the last note release
   958 2554 8D 85 06		        sta arp_step
   959 2557 A9 01		        lda #1
   960 2559 8D 86 06		        sta arp_timer
   961 255C A9 FF		        lda #$FF
   962 255E 8D 18 06		        sta held_voice
   963 2561 60			        rts
   964 2562			at_held
   965 2562 CE 86 06		        dec arp_timer
   966 2565 F0 01		        beq at_step
   967 2567 60			        rts
   968 2568			at_step
   969 2568 A9 10		        lda #16                 ; reload step interval = 16 - rate (min 1)
   970 256A 38			        sec
   971 256B ED 84 06		        sbc arp_rate
   972 256E D0 02		        bne at_rok
   973 2570 A9 01		        lda #1
   974 2572			at_rok
   975 2572 8D 86 06		        sta arp_timer
   976 2575 AC 03 06		        ldy octave              ; base = octave base + held semitone
   977 2578 B9 C8 35		        lda octave_base,y
   978 257B 18			        clc
   979 257C 6D 07 06		        adc note_idx
   980 257F 8D 0C 06		        sta tmpA
   981 2582 AD B5 06		        lda arp_mode            ; interval = arp_modes[mode*4 + step]
   982 2585 0A			        asl
   983 2586 0A			        asl
   984 2587 18			        clc
   985 2588 6D 85 06		        adc arp_step
   986 258B A8			        tay
   987 258C B9 A2 25		        lda arp_modes,y
   988 258F 18			        clc
   989 2590 6D 0C 06		        adc tmpA                ; note = base + interval
   990 2593 20 E9 24		        jsr trigger_note
   991 2596 AD 85 06		        lda arp_step            ; advance pattern position 0..3
   992 2599 18			        clc
   993 259A 69 01		        adc #1
   994 259C 29 03		        and #3
   995 259E 8D 85 06		        sta arp_step
   996 25A1 60			        rts
   997 				; arpeggiator patterns, 4 steps each, indexed mode*4 + step
   998 25A2			arp_modes
   999 25A2 00 04 07 0C		        .byte 0,4,7,12          ; 0 UP    (major arp up)
  1000 25A6 0C 07 04 00		        .byte 12,7,4,0          ; 1 DOWN  (major arp down)
  1001 25AA 00 03 07 0C		        .byte 0,3,7,12          ; 2 MINOR (minor arp up)
  1002 25AE 00 0C 00 0C		        .byte 0,12,0,12         ; 3 OCT   (octave jump)
  1003
  1004 				; ----------------------------------------------------------------------------
  1005 				;  Drum voice: a noise-percussion hit on channel 4 (its own subsystem, not the
  1006 				;  ADSR voice engine). Triggered by a $FD sequencer step. DRUM param = decay
  1007 				;  length (0 = off). 8-bit clock modes only (in 16-bit, channel 4 is a joined
  1008 				;  high channel). drum_tick runs after update_sound and overrides channel 4
  1009 				;  while a hit rings; when it ends, voice 3's normal output resumes.
  1010 				; ----------------------------------------------------------------------------
  1011 = 001E			DRUM_AUDF = $1E                 ; noise tone of the drum (fixed)
  1012 25B2			drum_hit
  1013 25B2 AD BD 06		        lda drum_dec            ; DRUM = 0 -> off
  1014 25B5 F0 12		        beq dh_off
  1015 25B7 AD 04 06		        lda clock15             ; no drum in 16-bit mode (channel 4 is paired)
  1016 25BA C9 02		        cmp #2
  1017 25BC F0 0B		        beq dh_off
  1018 25BE A9 0F		        lda #15
  1019 25C0 8D BE 06		        sta drum_level
  1020 25C3 AD BD 06		        lda drum_dec            ; full level held for one decay interval first
  1021 25C6 8D BF 06		        sta drum_timer
  1022 25C9			dh_off
  1023 25C9 60			        rts
  1024 25CA			drum_tick
  1025 25CA AD BE 06		        lda drum_level
  1026 25CD D0 01		        bne dt_active
  1027 25CF 60			        rts                     ; idle -> leave channel 4 to voice 3
  1028 25D0			dt_active
  1029 25D0 AD BD 06		        lda drum_dec            ; DRUM turned off -> silence any ringing drum
  1030 25D3 F0 07		        beq dt_kill
  1031 25D5 AD 04 06		        lda clock15             ; 16-bit reclaimed channel 4 -> drop the drum
  1032 25D8 C9 02		        cmp #2
  1033 25DA D0 06		        bne dt_decay
  1034 25DC			dt_kill
  1035 25DC A9 00		        lda #0
  1036 25DE 8D BE 06		        sta drum_level
  1037 25E1 60			        rts
  1038 25E2			dt_decay
  1039 25E2 CE BF 06		        dec drum_timer
  1040 25E5 D0 09		        bne dt_emit
  1041 25E7 AD BD 06		        lda drum_dec            ; reload decay interval (DRUM param)
  1042 25EA 8D BF 06		        sta drum_timer
  1043 25ED CE BE 06		        dec drum_level
  1044 25F0			dt_emit
  1045 25F0 A9 1E		        lda #DRUM_AUDF
  1046 25F2 8D 06 D2		        sta AUDF1+6             ; channel 4 frequency
  1047 25F5 AD BE 06		        lda drum_level          ; AUDC = distortion 0 (white-ish noise) | level
  1048 25F8 8D 07 D2		        sta AUDC1+6
  1049 25FB 60			        rts
  1050
  1051 				; live drum hit from the '1' key: fire on a fresh press (read_keyboard sets
  1052 				; note_idx=$FD while '1' is held). Recording captures the $FD via the normal
  1053 				; sequencer path, so this just gives the immediate audible hit.
  1054 25FC			drum_key_tick
  1055 25FC AD 07 06		        lda note_idx
  1056 25FF C9 FD		        cmp #$FD
  1057 2601 D0 0E		        bne dk_up
  1058 2603 AD C8 06		        lda drum_key
  1059 2606 D0 0E		        bne dk_done             ; still held -> no re-fire
  1060 2608 20 B2 25		        jsr drum_hit
  1061 260B A9 01		        lda #1
  1062 260D 8D C8 06		        sta drum_key
  1063 2610 60			        rts
  1064 2611			dk_up
  1065 2611 A9 00		        lda #0
  1066 2613 8D C8 06		        sta drum_key
  1067 2616			dk_done
  1068 2616 60			        rts
  1069
  1070 				; auto drum-machine: when DRUMBEAT>0, fire the drum every (16-DRUMBEAT) tempo
  1071 				; beats (tempo beat = the sequencer step interval). Free-running (no need to
  1072 				; start the sequencer); needs DRUM>0 for the hit to sound.
  1073 2617			drum_beat_tick
  1074 2617 AD C9 06		        lda drum_beat
  1075 261A F0 27		        beq dbt_done            ; off
  1076 261C CE CA 06		        dec dbeat_timer
  1077 261F D0 22		        bne dbt_done
  1078 2621 A9 10		        lda #16                 ; reload one tempo beat = (16-tempo)*2 + 2 frames
  1079 2623 38			        sec
  1080 2624 ED 8C 06		        sbc tempo
  1081 2627 0A			        asl
  1082 2628 18			        clc
  1083 2629 69 02		        adc #2
  1084 262B 8D CA 06		        sta dbeat_timer
  1085 262E CE CB 06		        dec dbeat_cnt
  1086 2631 D0 10		        bne dbt_done
  1087 2633 A9 10		        lda #16                 ; reload spacing = 16 - DRUMBEAT (min 1) and fire
  1088 2635 38			        sec
  1089 2636 ED C9 06		        sbc drum_beat
  1090 2639 D0 02		        bne dbt_sok
  1091 263B A9 01		        lda #1
  1092 263D			dbt_sok
  1093 263D 8D CB 06		        sta dbeat_cnt
  1094 2640 20 B2 25		        jsr drum_hit
  1095 2643			dbt_done
  1096 2643 60			        rts
  1097
  1098 				; ----------------------------------------------------------------------------
  1099 				;  Presets: 4 slots of the 17 sound params (everything except PRESET itself).
  1100 				;  Selecting a slot with the PRESET knob LOADS it live; pressing FIRE while the
  1101 				;  PRESET param is selected SAVES the current sound into the slot. The bank is
  1102 				;  seeded from preset_factory at boot. param_lo/param_hi give each param's
  1103 				;  address, so save/load just walk those tables.
  1104 				; ----------------------------------------------------------------------------
  1105 2644			preset_tick
  1106 2644 AD 10 D0		        lda STRIG0              ; fire-now: STRIG0 active low (0 = pressed)
  1107 2647 49 01		        eor #$01
  1108 2649 29 01		        and #$01
  1109 264B 8D 0C 06		        sta tmpA                ; tmpA = 1 if pressed (survives jsr preset_save,
  1110 				                                ; which only touches tmp2 — NOT tmpA)
  1111 264E AE 00 06		        ldx cur_param
  1112 2651 E0 11		        cpx #17                 ; PRESET param selected?
  1113 2653 D0 13		        bne pt_load
  1114 2655 AD 0C 06		        lda tmpA
  1115 2658 F0 0E		        beq pt_load
  1116 265A AD C7 06		        lda preset_fp           ; require a fresh press (edge), not a hold
  1117 265D D0 09		        bne pt_load
  1118 265F 20 8C 26		        jsr preset_save
  1119 2662 AD C5 06		        lda preset_slot         ; keep prev in sync so we don't reload after save
  1120 2665 8D C6 06		        sta prev_preset
  1121 2668			pt_load
  1122 2668 AD 0C 06		        lda tmpA                ; remember fire state for next-frame edge detect
  1123 266B 8D C7 06		        sta preset_fp
  1124 266E AD C5 06		        lda preset_slot         ; selection changed -> load that slot
  1125 2671 CD C6 06		        cmp prev_preset
  1126 2674 F0 06		        beq pt_done
  1127 2676 8D C6 06		        sta prev_preset
  1128 2679 20 B8 26		        jsr preset_load
  1129 267C			pt_done
  1130 267C 60			        rts
  1131
  1132 				; bank offset of the current slot (slot * NSAVE) -> tmp2
  1133 267D			preset_offset
  1134 267D AD C5 06		        lda preset_slot
  1135 2680 0A			        asl                     ; *16
  1136 2681 0A			        asl
  1137 2682 0A			        asl
  1138 2683 0A			        asl
  1139 2684 18			        clc
  1140 2685 6D C5 06		        adc preset_slot         ; + slot = *17
  1141 2688 8D 0D 06		        sta tmp2
  1142 268B 60			        rts
  1143 268C			preset_save
  1144 268C A9 28		        lda #40                 ; trigger the "SAVED" flash (~0.8s) on the PRESET cell
  1145 268E 8D D4 06		        sta saved_flash
  1146 2691 A9 FF		        lda #$FF
  1147 2693 8D 81 06		        sta prev_disp+17        ; force the PRESET value cell to redraw -> "SAVED"
  1148 2696 20 7D 26		        jsr preset_offset
  1149 2699 A2 00		        ldx #0
  1150 269B			ps_loop
  1151 269B BD A6 36		        lda param_lo,x
  1152 269E 85 CD		        sta srcptr
  1153 26A0 BD B9 36		        lda param_hi,x
  1154 26A3 85 CE		        sta srcptr+1
  1155 26A5 A0 00		        ldy #0
  1156 26A7 B1 CD		        lda (srcptr),y          ; current param value
  1157 26A9 AC 0D 06		        ldy tmp2
  1158 26AC 99 00 07		        sta preset_bank,y       ; -> bank slot
  1159 26AF EE 0D 06		        inc tmp2
  1160 26B2 E8			        inx
  1161 26B3 E0 11		        cpx #NSAVE
  1162 26B5 D0 E4		        bne ps_loop
  1163 26B7 60			        rts
  1164 26B8			preset_load
  1165 26B8 20 7D 26		        jsr preset_offset
  1166 26BB A2 00		        ldx #0
  1167 26BD			pl_loop
  1168 26BD BD A6 36		        lda param_lo,x
  1169 26C0 85 CD		        sta srcptr
  1170 26C2 BD B9 36		        lda param_hi,x
  1171 26C5 85 CE		        sta srcptr+1
  1172 26C7 AC 0D 06		        ldy tmp2
  1173 26CA B9 00 07		        lda preset_bank,y       ; saved value
  1174 26CD A0 00		        ldy #0
  1175 26CF 91 CD		        sta (srcptr),y          ; -> param
  1176 26D1 EE 0D 06		        inc tmp2
  1177 26D4 E8			        inx
  1178 26D5 E0 11		        cpx #NSAVE
  1179 26D7 D0 E4		        bne pl_loop
  1180 26D9 60			        rts
  1181 				; factory patches: NSAVE bytes each, in param order
  1182 				;   wave vol oct atk dec det sus rel clk lfor lfod arp tempo arpm porta drum hpf
  1183 26DA			preset_factory
  1184 26DA 01 0A 02 00 02 00 +         .byte 1,10,2,0,2,0, 8,3,0,8,0,0, 8,0,0,0,0          ; 0 INIT
  1185 26EB 01 0C 02 06 04 06 +         .byte 1,12,2,6,4,6, 14,8,0,4,5,0, 8,0,0,0,0         ; 1 PAD
  1186 26FC 00 0D 03 00 02 00 +         .byte 0,13,3,0,2,0, 10,3,0,9,8,0, 8,0,6,0,4         ; 2 LEAD (porta+HP)
  1187 270D 00 0C 02 00 00 08 +         .byte 0,12,2,0,0,8, 8,2,0,8,0,9, 10,0,0,0,0         ; 3 ARP
  1188
  1189 271E			update_sound
  1190 271E AD 2E 06		        lda sus_level
  1191 2721 CD 02 06		        cmp volume
  1192 2724 90 03		        bcc us_susok
  1193 2726 AD 02 06		        lda volume
  1194 2729			us_susok
  1195 2729 8D 30 06		        sta sus_clamp
  1196 				        ; per-voice detune offsets: dvoff = voice * (detune>>2)
  1197 272C AD 6E 06		        lda detune
  1198 272F 4A			        lsr
  1199 2730 4A			        lsr
  1200 2731 8D 6F 06		        sta detune_amt
  1201 2734 A9 00		        lda #0
  1202 2736 8D C1 06		        sta dvoff
  1203 2739 AD 6F 06		        lda detune_amt
  1204 273C 8D C2 06		        sta dvoff+1
  1205 273F 0A			        asl
  1206 2740 8D C3 06		        sta dvoff+2
  1207 2743 18			        clc
  1208 2744 6D 6F 06		        adc detune_amt
  1209 2747 8D C4 06		        sta dvoff+3
  1210 				        ; portamento step gate: advance the glide one AUDF step every
  1211 				        ; porta_rate frames (off -> emit snaps to target)
  1212 274A A9 00		        lda #0
  1213 274C 8D BC 06		        sta porta_step
  1214 274F AD B6 06		        lda porta_rate
  1215 2752 F0 0D		        beq us_porta_rdy
  1216 2754 CE B7 06		        dec porta_timer
  1217 2757 D0 08		        bne us_porta_rdy
  1218 2759 8D B7 06		        sta porta_timer         ; A still = porta_rate -> reload
  1219 275C A9 01		        lda #1
  1220 275E 8D BC 06		        sta porta_step
  1221 2761			us_porta_rdy
  1222 2761 A2 00		        ldx #0
  1223 2763			us_voice
  1224 2763 BD 20 06		        lda voice_phase,x
  1225 2766 D0 03		        bne us_active_voice
  1226 2768 4C 11 28		        jmp us_output           ; idle voice -> level 0 -> silenced in us_output
  1227 276B			us_active_voice
  1228 276B 8A			        txa
  1229 276C CD 18 06		        cmp held_voice
  1230 276F F0 11		        beq us_tick
  1231 2771 AD 87 06		        lda sustain_ped         ; OPTION held -> hold this voice, don't release
  1232 2774 D0 0C		        bne us_tick
  1233 2776 BD 20 06		        lda voice_phase,x
  1234 2779 C9 04		        cmp #PH_RELEASE
  1235 277B F0 05		        beq us_tick
  1236 277D A9 04		        lda #PH_RELEASE
  1237 277F 9D 20 06		        sta voice_phase,x
  1238 2782			us_tick
  1239 2782 DE 24 06		        dec voice_count,x
  1240 2785 F0 03		        beq us_step
  1241 2787 4C 11 28		        jmp us_output
  1242 278A			us_step
  1243 278A BC 20 06		        ldy voice_phase,x
  1244 278D B9 39 29		        lda us_jmp_lo-1,y
  1245 2790 85 CF		        sta adjptr
  1246 2792 B9 3D 29		        lda us_jmp_hi-1,y
  1247 2795 85 D0		        sta adjptr+1
  1248 2797 6C CF 00		        jmp (adjptr)
  1249 279A			us_release
  1250 279A AD 2F 06		        lda rel_rate
  1251 279D 18			        clc
  1252 279E 69 01		        adc #1
  1253 27A0 9D 24 06		        sta voice_count,x
  1254 27A3 BD 14 06		        lda voice_level,x
  1255 27A6 F0 08		        beq us_rel_idle
  1256 27A8 DE 14 06		        dec voice_level,x
  1257 27AB BD 14 06		        lda voice_level,x
  1258 27AE D0 05		        bne us_rel_done
  1259 27B0			us_rel_idle
  1260 27B0 A9 00		        lda #PH_IDLE
  1261 27B2 9D 20 06		        sta voice_phase,x
  1262 27B5			us_rel_done
  1263 27B5 4C 11 28		        jmp us_output
  1264 27B8			us_attack
  1265 27B8 AD 2C 06		        lda atk_rate
  1266 27BB 18			        clc
  1267 27BC 69 01		        adc #1
  1268 27BE 9D 24 06		        sta voice_count,x
  1269 27C1 FE 14 06		        inc voice_level,x
  1270 27C4 BD 14 06		        lda voice_level,x
  1271 27C7 CD 02 06		        cmp volume
  1272 27CA 90 0B		        bcc us_atk_done
  1273 27CC AD 02 06		        lda volume
  1274 27CF 9D 14 06		        sta voice_level,x
  1275 27D2 A9 02		        lda #PH_DECAY
  1276 27D4 9D 20 06		        sta voice_phase,x
  1277 27D7			us_atk_done
  1278 27D7 4C 11 28		        jmp us_output
  1279 27DA			us_decay
  1280 27DA AD 2D 06		        lda dec_rate
  1281 27DD 18			        clc
  1282 27DE 69 01		        adc #1
  1283 27E0 9D 24 06		        sta voice_count,x
  1284 27E3 BD 14 06		        lda voice_level,x
  1285 27E6 CD 30 06		        cmp sus_clamp
  1286 27E9 90 0D		        bcc us_dec_sus
  1287 27EB F0 0B		        beq us_dec_sus
  1288 27ED DE 14 06		        dec voice_level,x
  1289 27F0 BD 14 06		        lda voice_level,x
  1290 27F3 CD 30 06		        cmp sus_clamp
  1291 27F6 D0 0B		        bne us_dec_done
  1292 27F8			us_dec_sus
  1293 27F8 AD 30 06		        lda sus_clamp
  1294 27FB 9D 14 06		        sta voice_level,x
  1295 27FE A9 03		        lda #PH_SUSTAIN
  1296 2800 9D 20 06		        sta voice_phase,x
  1297 2803			us_dec_done
  1298 2803 4C 11 28		        jmp us_output
  1299 2806			us_sustain
  1300 2806 A9 01		        lda #1
  1301 2808 9D 24 06		        sta voice_count,x
  1302 280B AD 30 06		        lda sus_clamp
  1303 280E 9D 14 06		        sta voice_level,x
  1304 2811			us_output
  1305 2811 AD 04 06		        lda clock15
  1306 2814 C9 02		        cmp #2
  1307 2816 F0 6B		        beq us_out16            ; 16-bit (joined-pair) path
  1308 				        ; ---- 8-bit output (4 voices, one channel each) ----
  1309 2818 BD 14 06		        lda voice_level,x
  1310 281B D0 0B		        bne us_emit8
  1311 281D 8A			        txa                     ; idle -> silence this channel
  1312 281E 0A			        asl
  1313 281F A8			        tay
  1314 2820 A9 00		        lda #0
  1315 2822 99 01 D2		        sta AUDC1,y
  1316 2825 4C 05 29		        jmp us_next
  1317 2828			us_emit8
  1318 2828 BC 10 06		        ldy voice_note,x
  1319 282B B9 87 35		        lda chromatic,y         ; target AUDF for this note
  1320 282E 8D 0C 06		        sta tmpA
  1321 2831 AD B6 06		        lda porta_rate          ; --- portamento glide ---
  1322 2834 F0 1B		        beq us_pt_snap          ; off -> snap to target
  1323 2836 AD BC 06		        lda porta_step
  1324 2839 F0 1C		        beq us_pt_use           ; not a glide-step frame -> hold current
  1325 283B BD B8 06		        lda porta_cur,x         ; step porta_cur one AUDF toward target
  1326 283E CD 0C 06		        cmp tmpA
  1327 2841 F0 14		        beq us_pt_use
  1328 2843 B0 06		        bcs us_pt_dn
  1329 2845 FE B8 06		        inc porta_cur,x
  1330 2848 4C 57 28		        jmp us_pt_use
  1331 284B			us_pt_dn
  1332 284B DE B8 06		        dec porta_cur,x
  1333 284E 4C 57 28		        jmp us_pt_use
  1334 2851			us_pt_snap
  1335 2851 AD 0C 06		        lda tmpA
  1336 2854 9D B8 06		        sta porta_cur,x
  1337 2857			us_pt_use
  1338 2857 BD B8 06		        lda porta_cur,x
  1339 285A 18			        clc
  1340 285B 6D 68 06		        adc lfo_offset
  1341 285E 18			        clc
  1342 285F 7D C1 06		        adc dvoff,x
  1343 2862 8D 1C 06		        sta vfreq
  1344 2865 AC 01 06		        ldy wave_idx
  1345 2868 B9 CD 35		        lda wave_base,y
  1346 286B 1D 14 06		        ora voice_level,x
  1347 286E 8D 1D 06		        sta vctl
  1348 2871 8A			        txa
  1349 2872 0A			        asl
  1350 2873 A8			        tay
  1351 2874 AD 1C 06		        lda vfreq
  1352 2877 99 00 D2		        sta AUDF1,y
  1353 287A AD 1D 06		        lda vctl
  1354 287D 99 01 D2		        sta AUDC1,y
  1355 2880 4C 05 29		        jmp us_next
  1356 				        ; ---- 16-bit output: voice x -> channel pair (2x lo, 2x+1 hi) ----
  1357 				        ; AUDF lo->lo channel, hi->hi channel; volume on the HIGH channel.
  1358 2883			us_out16
  1359 2883 8A			        txa
  1360 2884 0A			        asl
  1361 2885 0A			        asl
  1362 2886 A8			        tay                     ; Y = x*4 = low-channel offset
  1363 2887 BD 14 06		        lda voice_level,x
  1364 288A D0 0B		        bne us_emit16
  1365 288C A9 00		        lda #0                  ; idle -> silence both channels of the pair
  1366 288E 99 01 D2		        sta AUDC1,y
  1367 2891 99 03 D2		        sta AUDC1+2,y
  1368 2894 4C 05 29		        jmp us_next
  1369 2897			us_emit16
  1370 2897 BC 10 06		        ldy voice_note,x        ; N = chrom16[note]
  1371 289A B9 13 36		        lda chrom16_lo,y
  1372 289D 8D 8A 06		        sta nlo
  1373 28A0 B9 54 36		        lda chrom16_hi,y
  1374 28A3 8D 8B 06		        sta nhi
  1375 28A6 AD 68 06		        lda lfo_offset          ; + vibrato (signed 16-bit)
  1376 28A9 30 12		        bmi u16_lneg
  1377 28AB 18			        clc
  1378 28AC 6D 8A 06		        adc nlo
  1379 28AF 8D 8A 06		        sta nlo
  1380 28B2 AD 8B 06		        lda nhi
  1381 28B5 69 00		        adc #0
  1382 28B7 8D 8B 06		        sta nhi
  1383 28BA 4C CC 28		        jmp u16_det
  1384 28BD			u16_lneg
  1385 28BD 18			        clc
  1386 28BE 6D 8A 06		        adc nlo
  1387 28C1 8D 8A 06		        sta nlo
  1388 28C4 AD 8B 06		        lda nhi
  1389 28C7 69 FF		        adc #$FF
  1390 28C9 8D 8B 06		        sta nhi
  1391 28CC			u16_det
  1392 28CC 18			        clc                     ; + detune (positive)
  1393 28CD AD 8A 06		        lda nlo
  1394 28D0 7D C1 06		        adc dvoff,x
  1395 28D3 8D 8A 06		        sta nlo
  1396 28D6 AD 8B 06		        lda nhi
  1397 28D9 69 00		        adc #0
  1398 28DB 8D 8B 06		        sta nhi
  1399 28DE AC 01 06		        ldy wave_idx            ; AUDC for the audible (high) channel
  1400 28E1 B9 CD 35		        lda wave_base,y
  1401 28E4 1D 14 06		        ora voice_level,x
  1402 28E7 8D 1D 06		        sta vctl
  1403 28EA 8A			        txa
  1404 28EB 0A			        asl
  1405 28EC 0A			        asl
  1406 28ED A8			        tay                     ; Y = x*4
  1407 28EE AD 8A 06		        lda nlo
  1408 28F1 99 00 D2		        sta AUDF1,y             ; low byte -> low channel
  1409 28F4 A9 00		        lda #0
  1410 28F6 99 01 D2		        sta AUDC1,y             ; low channel silent
  1411 28F9 AD 8B 06		        lda nhi
  1412 28FC 99 02 D2		        sta AUDF1+2,y           ; high byte -> high channel
  1413 28FF AD 1D 06		        lda vctl
  1414 2902 99 03 D2		        sta AUDC1+2,y           ; output on high channel
  1415 2905			us_next
  1416 2905 E8			        inx
  1417 2906 EC 88 06		        cpx vlimit
  1418 2909 F0 03		        beq us_loopdone
  1419 290B 4C 63 27		        jmp us_voice
  1420 290E			us_loopdone
  1421 290E AE 04 06		        ldx clock15
  1422 2911 BD 37 29		        lda audctl_tab,x
  1423 				        ; high-pass filter (8-bit modes): channel 1 is high-passed, clocked by
  1424 				        ; channel 3. Sacrifice voice 2's channel 3 as the (silent) cutoff clock.
  1425 				        ; Higher HPF -> smaller AUDF3 -> higher cutoff -> more low-end removed.
  1426 2914 AC C0 06		        ldy hpf_cut
  1427 2917 F0 1A		        beq us_nohp
  1428 2919 E0 02		        cpx #2                  ; not available in 16-bit (channel 3 is paired)
  1429 291B F0 16		        beq us_nohp
  1430 291D 09 04		        ora #$04                ; AUDCTL bit2: high-pass ch1 via ch3
  1431 291F 8D 08 D2		        sta AUDCTL
  1432 2922 A9 10		        lda #16                 ; AUDF3 = (16 - HPF) * 4  (cutoff clock)
  1433 2924 38			        sec
  1434 2925 ED C0 06		        sbc hpf_cut
  1435 2928 0A			        asl
  1436 2929 0A			        asl
  1437 292A 8D 04 D2		        sta AUDF1+4             ; channel 3 frequency = cutoff
  1438 292D A9 A0		        lda #$A0                ; pure tone, volume 0 -> runs as clock, silent
  1439 292F 8D 05 D2		        sta AUDC1+4             ; channel 3 control
  1440 2932 60			        rts
  1441 2933			us_nohp
  1442 2933 8D 08 D2		        sta AUDCTL
  1443 2936 60			        rts
  1444 2937			audctl_tab
  1445 2937 00 01 78		        .byte $00,$01,$78       ; NORMAL / 15kHz / 16-bit (join+1.79MHz both pairs)
  1446
  1447 293A			us_jmp_lo
  1448 293A B8 DA 06 9A		        .byte <us_attack, <us_decay, <us_sustain, <us_release
  1449 293E			us_jmp_hi
  1450 293E 27 27 28 27		        .byte >us_attack, >us_decay, >us_sustain, >us_release
  1451
  1452 2942			wait_vbl
  1453 2942 A5 14		        lda RTCLOK+2
  1454 2944			wv_l
  1455 2944 C5 14		        cmp RTCLOK+2
  1456 2946 F0 FC		        beq wv_l
  1457 2948 60			        rts
  1458
  1459 				; ----------------------------------------------------------------------------
  1460 				;  LFO (vibrato): a triangle that ramps a signed pitch offset between
  1461 				;  -lfo_max and +lfo_max; rate sets step interval, depth sets amplitude.
  1462 				;  No multiply: lfo_level_u counts 0..2*max, offset = level - max.
  1463 				; ----------------------------------------------------------------------------
  1464 2949			lfo_tick
  1465 2949 AD 64 06		        lda lfo_depth           ; depth 0 -> LFO fully off, instantly flat
  1466 294C D0 07		        bne lt_on               ; (don't let the triangle counter decay slowly,
  1467 294E 8D 68 06		        sta lfo_offset          ;  which would leave a residual pitch offset)
  1468 2951 8D 65 06		        sta lfo_level_u
  1469 2954 60			        rts
  1470 2955			lt_on
  1471 2955 4A			        lsr                     ; amplitude = depth/2 (0..7)
  1472 2956 8D 69 06		        sta lfo_max
  1473 2959 CE 67 06		        dec lfo_count
  1474 295C F0 01		        beq lt_step
  1475 295E 60			        rts
  1476 295F			lt_step
  1477 295F A9 10		        lda #16                 ; reload: rate 0 -> slow (16), 15 -> fast (1)
  1478 2961 38			        sec
  1479 2962 ED 63 06		        sbc lfo_rate
  1480 2965 8D 67 06		        sta lfo_count
  1481 2968 AD 69 06		        lda lfo_max
  1482 296B 0A			        asl
  1483 296C 8D 6A 06		        sta lfo_max2            ; 2*max
  1484 296F AD 66 06		        lda lfo_dir
  1485 2972 30 19		        bmi lt_down
  1486 2974 EE 65 06		        inc lfo_level_u         ; ramp up
  1487 2977 AD 65 06		        lda lfo_level_u
  1488 297A CD 6A 06		        cmp lfo_max2
  1489 297D 90 1E		        bcc lt_offset
  1490 297F AD 6A 06		        lda lfo_max2            ; hit top -> clamp, reverse
  1491 2982 8D 65 06		        sta lfo_level_u
  1492 2985 A9 FF		        lda #$FF
  1493 2987 8D 66 06		        sta lfo_dir
  1494 298A 4C 9D 29		        jmp lt_offset
  1495 298D			lt_down
  1496 298D AD 65 06		        lda lfo_level_u
  1497 2990 F0 06		        beq lt_rev_up           ; at 0 -> reverse
  1498 2992 CE 65 06		        dec lfo_level_u
  1499 2995 4C 9D 29		        jmp lt_offset
  1500 2998			lt_rev_up
  1501 2998 A9 01		        lda #1
  1502 299A 8D 66 06		        sta lfo_dir
  1503 299D			lt_offset
  1504 299D AD 65 06		        lda lfo_level_u         ; offset = level - max  (signed)
  1505 29A0 38			        sec
  1506 29A1 ED 69 06		        sbc lfo_max
  1507 29A4 8D 68 06		        sta lfo_offset
  1508 29A7 60			        rts
  1509
  1510 				; ============================================================================
  1511 				;  GR.8 SETUP
  1512 				; ============================================================================
  1513 29A8			gr8_init
  1514 29A8 20 E3 29		        jsr build_linetab
  1515 29AB 20 2A 2A		        jsr clear_fb
  1516 29AE A9 00		        lda #$00                ; black background + border
  1517 29B0 8D C6 02		        sta COLOR2
  1518 29B3 8D C8 02		        sta COLOR4
  1519 29B6 A9 0E		        lda #$0E                ; bright foreground (luminance in hi-res)
  1520 29B8 8D C5 02		        sta COLOR1
  1521 29BB A9 00		        lda #<dlist
  1522 29BD 8D 30 02		        sta SDLSTL
  1523 29C0 A9 3C		        lda #>dlist
  1524 29C2 8D 31 02		        sta SDLSTL+1
  1525 29C5 A9 22		        lda #$22                ; normal width + screen DMA (OS VBI -> DMACTL)
  1526 29C7 8D 2F 02		        sta SDMCTL
  1527 				        ; DEMO (DEACTIVATED): DLI colour-band handler. To re-enable, install
  1528 				        ; VDSLST/NMIEN here, set COLOR2 above to TITLE_COL, and restore the $80
  1529 				        ; DLI bits in dlist (scanlines 7 and 123). Handler kept below for reuse.
  1530 29CA 60			        rts
  1531
  1532 				; DEMO: DLI colour bands. Fires at the end of the title row (-> panel colour)
  1533 				; and just above the keyboard (-> neutral colour). dli_idx walks the table and
  1534 				; is reset to 0 each frame by the main loop.
  1535 29CB			dli_handler
  1536 29CB 48			        pha                     ; save A and X (X indexes the band table; the
  1537 29CC 8A			        txa                     ; main loop uses X mid-draw, so we must not
  1538 29CD 48			        pha                     ; clobber it or fillrect/blit corrupts the FB)
  1539 29CE AE CD 06		        ldx dli_idx
  1540 29D1 BD E1 29		        lda dli_band,x
  1541 29D4 8D 0A D4		        sta WSYNC
  1542 29D7 8D 18 D0		        sta COLPF2
  1543 29DA EE CD 06		        inc dli_idx
  1544 29DD 68			        pla
  1545 29DE AA			        tax
  1546 29DF 68			        pla
  1547 29E0 40			        rti
  1548 29E1			dli_band
  1549 29E1 C0 00		        .byte PANEL_COL, KBD_COL
  1550
  1551 				; build the 192-entry scan-line address table (hides the FB1/FB2 split)
  1552 29E3			build_linetab
  1553 29E3 A9 00		        lda #<FB1
  1554 29E5 85 CB		        sta scrptr
  1555 29E7 A9 40		        lda #>FB1
  1556 29E9 85 CC		        sta scrptr+1
  1557 29EB A2 00		        ldx #0
  1558 29ED			blt1
  1559 29ED A5 CB		        lda scrptr
  1560 29EF 9D 00 60		        sta linetab_lo,x
  1561 29F2 A5 CC		        lda scrptr+1
  1562 29F4 9D C0 60		        sta linetab_hi,x
  1563 29F7 18			        clc
  1564 29F8 A5 CB		        lda scrptr
  1565 29FA 69 28		        adc #40
  1566 29FC 85 CB		        sta scrptr
  1567 29FE 90 02		        bcc blt1n
  1568 2A00 E6 CC		        inc scrptr+1
  1569 2A02			blt1n
  1570 2A02 E8			        inx
  1571 2A03 E0 66		        cpx #102
  1572 2A05 D0 E6		        bne blt1
  1573 2A07 A9 00		        lda #<FB2
  1574 2A09 85 CB		        sta scrptr
  1575 2A0B A9 50		        lda #>FB2
  1576 2A0D 85 CC		        sta scrptr+1
  1577 2A0F			blt2
  1578 2A0F A5 CB		        lda scrptr
  1579 2A11 9D 00 60		        sta linetab_lo,x
  1580 2A14 A5 CC		        lda scrptr+1
  1581 2A16 9D C0 60		        sta linetab_hi,x
  1582 2A19 18			        clc
  1583 2A1A A5 CB		        lda scrptr
  1584 2A1C 69 28		        adc #40
  1585 2A1E 85 CB		        sta scrptr
  1586 2A20 90 02		        bcc blt2n
  1587 2A22 E6 CC		        inc scrptr+1
  1588 2A24			blt2n
  1589 2A24 E8			        inx
  1590 2A25 E0 C0		        cpx #192
  1591 2A27 D0 E6		        bne blt2
  1592 2A29 60			        rts
  1593
  1594 				; zero the framebuffer ($4000-$5FFF, 8K, covers both regions)
  1595 2A2A			clear_fb
  1596 2A2A A9 00		        lda #<FB1
  1597 2A2C 85 CB		        sta scrptr
  1598 2A2E A9 40		        lda #>FB1
  1599 2A30 85 CC		        sta scrptr+1
  1600 2A32 A9 00		        lda #0
  1601 2A34 A2 20		        ldx #32
  1602 2A36 A8			        tay
  1603 2A37			cf_l
  1604 2A37 91 CB		        sta (scrptr),y
  1605 2A39 C8			        iny
  1606 2A3A D0 FB		        bne cf_l
  1607 2A3C E6 CC		        inc scrptr+1
  1608 2A3E CA			        dex
  1609 2A3F D0 F6		        bne cf_l
  1610 2A41 60			        rts
  1611
  1612 				; ============================================================================
  1613 				;  GRAPHICS PRIMITIVES
  1614 				; ============================================================================
  1615 				; set one pixel: x = xhi:xlo (0..319), y = py (0..191)
  1616 2A42			plot
  1617 2A42 AD 40 06		        lda xlo
  1618 2A45 4A			        lsr
  1619 2A46 4A			        lsr
  1620 2A47 4A			        lsr
  1621 2A48 8D 0C 06		        sta tmpA                ; xlo>>3
  1622 2A4B AD 41 06		        lda xhi
  1623 2A4E F0 09		        beq pl_nohi
  1624 2A50 AD 0C 06		        lda tmpA
  1625 2A53 18			        clc
  1626 2A54 69 20		        adc #32                 ; + 256/8
  1627 2A56 8D 0C 06		        sta tmpA
  1628 2A59			pl_nohi
  1629 2A59 AC 42 06		        ldy py
  1630 2A5C B9 00 60		        lda linetab_lo,y
  1631 2A5F 18			        clc
  1632 2A60 6D 0C 06		        adc tmpA
  1633 2A63 85 CB		        sta scrptr
  1634 2A65 B9 C0 60		        lda linetab_hi,y
  1635 2A68 69 00		        adc #0
  1636 2A6A 85 CC		        sta scrptr+1
  1637 2A6C AD 40 06		        lda xlo
  1638 2A6F 29 07		        and #7
  1639 2A71 AA			        tax
  1640 2A72 BD 0D 38		        lda bitmask_tab,x
  1641 2A75 AC 61 06		        ldy pmode
  1642 2A78 D0 07		        bne pl_clear
  1643 2A7A A0 00		        ldy #0
  1644 2A7C 11 CB		        ora (scrptr),y
  1645 2A7E 91 CB		        sta (scrptr),y
  1646 2A80 60			        rts
  1647 2A81			pl_clear
  1648 2A81 49 FF		        eor #$FF
  1649 2A83 A0 00		        ldy #0
  1650 2A85 31 CB		        and (scrptr),y
  1651 2A87 91 CB		        sta (scrptr),y
  1652 2A89 60			        rts
  1653
  1654 				; horizontal run of A pixels from (xlo:xhi,py), advancing x
  1655 2A8A			hline
  1656 2A8A 8D 43 06		        sta s0
  1657 2A8D			hl_l
  1658 2A8D 20 42 2A		        jsr plot
  1659 2A90 EE 40 06		        inc xlo
  1660 2A93 D0 03		        bne hl_nc
  1661 2A95 EE 41 06		        inc xhi
  1662 2A98			hl_nc
  1663 2A98 CE 43 06		        dec s0
  1664 2A9B D0 F0		        bne hl_l
  1665 2A9D 60			        rts
  1666
  1667 				; vertical run of A pixels from (xlo:xhi,py) downward
  1668 2A9E			vline
  1669 2A9E 8D 43 06		        sta s0
  1670 2AA1			vl_l
  1671 2AA1 20 42 2A		        jsr plot
  1672 2AA4 EE 42 06		        inc py
  1673 2AA7 CE 43 06		        dec s0
  1674 2AAA D0 F5		        bne vl_l
  1675 2AAC 60			        rts
  1676
  1677 				; rectangle outline: left=xlo:xhi, top=py, width=rw, height=rh
  1678 2AAD			rect
  1679 2AAD AD 40 06		        lda xlo
  1680 2AB0 8D 53 06		        sta r_x
  1681 2AB3 AD 41 06		        lda xhi
  1682 2AB6 8D 54 06		        sta r_xh
  1683 2AB9 AD 42 06		        lda py
  1684 2ABC 8D 55 06		        sta r_y
  1685 2ABF AD 51 06		        lda rw                  ; top edge
  1686 2AC2 20 8A 2A		        jsr hline
  1687 2AC5 AD 53 06		        lda r_x                 ; bottom edge
  1688 2AC8 8D 40 06		        sta xlo
  1689 2ACB AD 54 06		        lda r_xh
  1690 2ACE 8D 41 06		        sta xhi
  1691 2AD1 AD 55 06		        lda r_y
  1692 2AD4 18			        clc
  1693 2AD5 6D 52 06		        adc rh
  1694 2AD8 38			        sec
  1695 2AD9 E9 01		        sbc #1
  1696 2ADB 8D 42 06		        sta py
  1697 2ADE AD 51 06		        lda rw
  1698 2AE1 20 8A 2A		        jsr hline
  1699 2AE4 AD 53 06		        lda r_x                 ; left edge
  1700 2AE7 8D 40 06		        sta xlo
  1701 2AEA AD 54 06		        lda r_xh
  1702 2AED 8D 41 06		        sta xhi
  1703 2AF0 AD 55 06		        lda r_y
  1704 2AF3 8D 42 06		        sta py
  1705 2AF6 AD 52 06		        lda rh
  1706 2AF9 20 9E 2A		        jsr vline
  1707 2AFC 18			        clc                     ; right edge x = left + rw - 1
  1708 2AFD AD 53 06		        lda r_x
  1709 2B00 6D 51 06		        adc rw
  1710 2B03 8D 40 06		        sta xlo
  1711 2B06 AD 54 06		        lda r_xh
  1712 2B09 69 00		        adc #0
  1713 2B0B 8D 41 06		        sta xhi
  1714 2B0E 38			        sec
  1715 2B0F AD 40 06		        lda xlo
  1716 2B12 E9 01		        sbc #1
  1717 2B14 8D 40 06		        sta xlo
  1718 2B17 AD 41 06		        lda xhi
  1719 2B1A E9 00		        sbc #0
  1720 2B1C 8D 41 06		        sta xhi
  1721 2B1F AD 55 06		        lda r_y
  1722 2B22 8D 42 06		        sta py
  1723 2B25 AD 52 06		        lda rh
  1724 2B28 20 9E 2A		        jsr vline
  1725 2B2B 60			        rts
  1726
  1727 				; filled rectangle: left=xlo:xhi, top=py, width=rw, height=rh
  1728 2B2C			fillrect
  1729 2B2C AD 40 06		        lda xlo
  1730 2B2F 8D 53 06		        sta r_x
  1731 2B32 AD 41 06		        lda xhi
  1732 2B35 8D 54 06		        sta r_xh
  1733 2B38 AE 52 06		        ldx rh
  1734 2B3B			fr_l
  1735 2B3B AD 53 06		        lda r_x
  1736 2B3E 8D 40 06		        sta xlo
  1737 2B41 AD 54 06		        lda r_xh
  1738 2B44 8D 41 06		        sta xhi
  1739 2B47 8A			        txa
  1740 2B48 48			        pha
  1741 2B49 AD 51 06		        lda rw
  1742 2B4C 20 8A 2A		        jsr hline
  1743 2B4F 68			        pla
  1744 2B50 AA			        tax
  1745 2B51 EE 42 06		        inc py
  1746 2B54 CA			        dex
  1747 2B55 D0 E4		        bne fr_l
  1748 2B57 60			        rts
  1749
  1750 				; ============================================================================
  1751 				;  TEXT (blit 8x8 ROM-font glyphs; screen-code index)
  1752 				; ============================================================================
  1753 				; blit glyph bc_code at byte column bc_col, scan line bc_scan (EOR bc_inv)
  1754 				; uses scrptr for the font pointer so the caller's srcptr (string) survives
  1755 2B58			blit_char
  1756 2B58 AD 48 06		        lda bc_code
  1757 2B5B 8D 43 06		        sta s0
  1758 2B5E A9 00		        lda #0
  1759 2B60 8D 44 06		        sta s1
  1760 2B63 0E 43 06		        asl s0
  1761 2B66 2E 44 06		        rol s1
  1762 2B69 0E 43 06		        asl s0
  1763 2B6C 2E 44 06		        rol s1
  1764 2B6F 0E 43 06		        asl s0
  1765 2B72 2E 44 06		        rol s1                  ; s1:s0 = code*8
  1766 2B75 AD 43 06		        lda s0
  1767 2B78 85 CB		        sta scrptr
  1768 2B7A AD 44 06		        lda s1
  1769 2B7D 18			        clc
  1770 2B7E 69 E0		        adc #>ROMFONT
  1771 2B80 85 CC		        sta scrptr+1
  1772 2B82			blit_glyph                      ; alt entry: scrptr already -> an 8-byte glyph bitmap
  1773 2B82 A2 00		        ldx #0
  1774 2B84			bc_l
  1775 2B84 8A			        txa
  1776 2B85 18			        clc
  1777 2B86 6D 4A 06		        adc bc_scan
  1778 2B89 A8			        tay
  1779 2B8A B9 00 60		        lda linetab_lo,y
  1780 2B8D 18			        clc
  1781 2B8E 6D 49 06		        adc bc_col
  1782 2B91 85 CF		        sta adjptr
  1783 2B93 B9 C0 60		        lda linetab_hi,y
  1784 2B96 69 00		        adc #0
  1785 2B98 85 D0		        sta adjptr+1
  1786 2B9A 8A			        txa
  1787 2B9B A8			        tay
  1788 2B9C B1 CB		        lda (scrptr),y
  1789 2B9E 4D 4B 06		        eor bc_inv
  1790 2BA1 AC 62 06		        ldy bc_mode
  1791 2BA4 F0 0B		        beq bc_set
  1792 2BA6 49 FF		        eor #$FF                ; clear mode: dest AND (NOT glyph)
  1793 2BA8 A0 00		        ldy #0
  1794 2BAA 31 CF		        and (adjptr),y
  1795 2BAC 91 CF		        sta (adjptr),y
  1796 2BAE 4C B5 2B		        jmp bc_step
  1797 2BB1			bc_set
  1798 2BB1 A0 00		        ldy #0
  1799 2BB3 91 CF		        sta (adjptr),y
  1800 2BB5			bc_step
  1801 2BB5 E8			        inx
  1802 2BB6 E0 08		        cpx #8
  1803 2BB8 D0 CA		        bne bc_l
  1804 2BBA 60			        rts
  1805
  1806 				; print $FF-terminated screen-code string srcptr at bc_col,bc_scan
  1807 2BBB			print_strz
  1808 2BBB A9 00		        lda #0
  1809 2BBD 8D 4C 06		        sta psi
  1810 2BC0			ps_l
  1811 2BC0 AC 4C 06		        ldy psi
  1812 2BC3 B1 CD		        lda (srcptr),y
  1813 2BC5 C9 FF		        cmp #$FF
  1814 2BC7 F0 0F		        beq ps_done
  1815 2BC9 8D 48 06		        sta bc_code
  1816 2BCC 20 58 2B		        jsr blit_char
  1817 2BCF EE 49 06		        inc bc_col
  1818 2BD2 EE 4C 06		        inc psi
  1819 2BD5 4C C0 2B		        jmp ps_l
  1820 2BD8			ps_done
  1821 2BD8 60			        rts
  1822
  1823 				; print pcnt screen-code bytes from srcptr at bc_col,bc_scan
  1824 2BD9			print_n
  1825 2BD9 A9 00		        lda #0
  1826 2BDB 8D 4C 06		        sta psi
  1827 2BDE			pn_l
  1828 2BDE AC 4C 06		        ldy psi
  1829 2BE1 B1 CD		        lda (srcptr),y
  1830 2BE3 8D 48 06		        sta bc_code
  1831 2BE6 20 58 2B		        jsr blit_char
  1832 2BE9 EE 49 06		        inc bc_col
  1833 2BEC EE 4C 06		        inc psi
  1834 2BEF AD 4C 06		        lda psi
  1835 2BF2 CD 4D 06		        cmp pcnt
  1836 2BF5 D0 E7		        bne pn_l
  1837 2BF7 60			        rts
  1838
  1839 				; draw A (0..99) as two digits at bc_col,bc_scan (advances bc_col by 2)
  1840 2BF8			num2
  1841 2BF8 A2 00		        ldx #0
  1842 2BFA			n2_l
  1843 2BFA C9 0A		        cmp #10
  1844 2BFC 90 07		        bcc n2_done
  1845 2BFE 38			        sec
  1846 2BFF E9 0A		        sbc #10
  1847 2C01 E8			        inx
  1848 2C02 4C FA 2B		        jmp n2_l
  1849 2C05			n2_done
  1850 2C05 48			        pha
  1851 2C06 8A			        txa
  1852 2C07 18			        clc
  1853 2C08 69 10		        adc #$10
  1854 2C0A 8D 48 06		        sta bc_code
  1855 2C0D 20 58 2B		        jsr blit_char
  1856 2C10 EE 49 06		        inc bc_col
  1857 2C13 68			        pla
  1858 2C14 18			        clc
  1859 2C15 69 10		        adc #$10
  1860 2C17 8D 48 06		        sta bc_code
  1861 2C1A 20 58 2B		        jsr blit_char
  1862 2C1D EE 49 06		        inc bc_col
  1863 2C20 60			        rts
  1864
  1865 				; ============================================================================
  1866 				;  KNOB  (ring + pointer; centre kcx,kcy, position kfrm 0..15)
  1867 				; ============================================================================
  1868 2C21			draw_knob
  1869 2C21 20 CB 2C		        jsr clr_knob_box
  1870 2C24 A9 00		        lda #0
  1871 2C26 8D 61 06		        sta pmode
  1872 2C29 8D 41 06		        sta xhi
  1873 2C2C A2 00		        ldx #0
  1874 2C2E			dkc
  1875 2C2E 8E 45 06		        stx s_dy
  1876 2C31 BD 15 38		        lda hw_tab,x
  1877 2C34 8D 43 06		        sta s0                  ; half-width for this row
  1878 2C37 AD 4F 06		        lda kcy                 ; upper row cy-dy
  1879 2C3A 38			        sec
  1880 2C3B ED 45 06		        sbc s_dy
  1881 2C3E 8D 42 06		        sta py
  1882 2C41 AD 4E 06		        lda kcx
  1883 2C44 38			        sec
  1884 2C45 ED 43 06		        sbc s0
  1885 2C48 8D 40 06		        sta xlo
  1886 2C4B 20 42 2A		        jsr plot
  1887 2C4E AD 4E 06		        lda kcx
  1888 2C51 18			        clc
  1889 2C52 6D 43 06		        adc s0
  1890 2C55 8D 40 06		        sta xlo
  1891 2C58 20 42 2A		        jsr plot
  1892 2C5B AD 4F 06		        lda kcy                 ; lower row cy+dy
  1893 2C5E 18			        clc
  1894 2C5F 6D 45 06		        adc s_dy
  1895 2C62 8D 42 06		        sta py
  1896 2C65 AD 4E 06		        lda kcx
  1897 2C68 38			        sec
  1898 2C69 ED 43 06		        sbc s0
  1899 2C6C 8D 40 06		        sta xlo
  1900 2C6F 20 42 2A		        jsr plot
  1901 2C72 AD 4E 06		        lda kcx
  1902 2C75 18			        clc
  1903 2C76 6D 43 06		        adc s0
  1904 2C79 8D 40 06		        sta xlo
  1905 2C7C 20 42 2A		        jsr plot
  1906 2C7F AE 45 06		        ldx s_dy
  1907 2C82 E8			        inx
  1908 2C83 E0 07		        cpx #7
  1909 2C85 D0 A7		        bne dkc
  1910 2C87 AE 50 06		        ldx kfrm                ; pointer: rim, mid, centre
  1911 2C8A AD 4E 06		        lda kcx
  1912 2C8D 18			        clc
  1913 2C8E 7D 1C 38		        adc kn_ex,x
  1914 2C91 8D 40 06		        sta xlo
  1915 2C94 AD 4F 06		        lda kcy
  1916 2C97 18			        clc
  1917 2C98 7D 2C 38		        adc kn_ey,x
  1918 2C9B 8D 42 06		        sta py
  1919 2C9E 20 42 2A		        jsr plot
  1920 2CA1 AE 50 06		        ldx kfrm
  1921 2CA4 AD 4E 06		        lda kcx
  1922 2CA7 18			        clc
  1923 2CA8 7D 3C 38		        adc kn_mx,x
  1924 2CAB 8D 40 06		        sta xlo
  1925 2CAE AD 4F 06		        lda kcy
  1926 2CB1 18			        clc
  1927 2CB2 7D 4C 38		        adc kn_my,x
  1928 2CB5 8D 42 06		        sta py
  1929 2CB8 20 42 2A		        jsr plot
  1930 2CBB AD 4E 06		        lda kcx
  1931 2CBE 8D 40 06		        sta xlo
  1932 2CC1 AD 4F 06		        lda kcy
  1933 2CC4 8D 42 06		        sta py
  1934 2CC7 20 42 2A		        jsr plot
  1935 2CCA 60			        rts
  1936
  1937 				; clear a 3-byte x 14-row box around the knob centre (erase before redraw)
  1938 2CCB			clr_knob_box
  1939 2CCB AD 4E 06		        lda kcx
  1940 2CCE 4A			        lsr
  1941 2CCF 4A			        lsr
  1942 2CD0 4A			        lsr
  1943 2CD1 38			        sec
  1944 2CD2 E9 01		        sbc #1
  1945 2CD4 8D 43 06		        sta s0                  ; start byte column
  1946 2CD7 AD 4F 06		        lda kcy
  1947 2CDA 38			        sec
  1948 2CDB E9 07		        sbc #7
  1949 2CDD 8D 44 06		        sta s1                  ; top scan line
  1950 2CE0 A2 0E		        ldx #14
  1951 2CE2			ckb_row
  1952 2CE2 AC 44 06		        ldy s1
  1953 2CE5 B9 00 60		        lda linetab_lo,y
  1954 2CE8 18			        clc
  1955 2CE9 6D 43 06		        adc s0
  1956 2CEC 85 CB		        sta scrptr
  1957 2CEE B9 C0 60		        lda linetab_hi,y
  1958 2CF1 69 00		        adc #0
  1959 2CF3 85 CC		        sta scrptr+1
  1960 2CF5 A9 00		        lda #0
  1961 2CF7 A0 00		        ldy #0
  1962 2CF9 91 CB		        sta (scrptr),y
  1963 2CFB A0 01		        ldy #1
  1964 2CFD 91 CB		        sta (scrptr),y
  1965 2CFF A0 02		        ldy #2
  1966 2D01 91 CB		        sta (scrptr),y
  1967 2D03 EE 44 06		        inc s1
  1968 2D06 CA			        dex
  1969 2D07 D0 D9		        bne ckb_row
  1970 2D09 60			        rts
  1971
  1972 				; ============================================================================
  1973 				;  STATIC LAYOUT  (drawn once)
  1974 				; ============================================================================
  1975 2D0A			draw_static_gfx
  1976 2D0A A9 00		        lda #0
  1977 2D0C 8D 4B 06		        sta bc_inv
  1978 2D0F 8D 62 06		        sta bc_mode
  1979 				        ; title
  1980 2D12 A9 EA		        lda #<txt_title
  1981 2D14 85 CD		        sta srcptr
  1982 2D16 A9 3C		        lda #>txt_title
  1983 2D18 85 CE		        sta srcptr+1
  1984 2D1A A9 0B		        lda #11
  1985 2D1C 8D 49 06		        sta bc_col
  1986 2D1F A9 00		        lda #0
  1987 2D21 8D 4A 06		        sta bc_scan
  1988 2D24 20 BB 2B		        jsr print_strz
  1989 				        ; (parameter labels are drawn per-page by update_display on page change)
  1990 				        ; NOTE label (top-right, on the title line)
  1991 2D27 A9 36		        lda #<txt_note
  1992 2D29 85 CD		        sta srcptr
  1993 2D2B A9 3D		        lda #>txt_note
  1994 2D2D 85 CE		        sta srcptr+1
  1995 2D2F A9 1E		        lda #30
  1996 2D31 8D 49 06		        sta bc_col
  1997 2D34 A9 00		        lda #0
  1998 2D36 8D 4A 06		        sta bc_scan
  1999 2D39 20 BB 2B		        jsr print_strz
  2000 2D3C 20 40 2D		        jsr draw_keyboard
  2001 2D3F 60			        rts
  2002
  2003 2D40			draw_keyboard
  2004 				        ; white keys: 10 FILLED rectangles, 28x56, pitch 30, from x=10
  2005 2D40 A9 00		        lda #0
  2006 2D42 8D 61 06		        sta pmode
  2007 2D45 A9 0A		        lda #10
  2008 2D47 8D 56 06		        sta wxl
  2009 2D4A A9 00		        lda #0
  2010 2D4C 8D 57 06		        sta wxh
  2011 2D4F A2 00		        ldx #0
  2012 2D51			dkw
  2013 2D51 8E 46 06		        stx s_kc
  2014 2D54 AD 56 06		        lda wxl
  2015 2D57 8D 40 06		        sta xlo
  2016 2D5A AD 57 06		        lda wxh
  2017 2D5D 8D 41 06		        sta xhi
  2018 2D60 A9 84		        lda #KBTOP
  2019 2D62 8D 42 06		        sta py
  2020 2D65 A9 1C		        lda #28
  2021 2D67 8D 51 06		        sta rw
  2022 2D6A A9 38		        lda #56
  2023 2D6C 8D 52 06		        sta rh
  2024 2D6F 20 2C 2B		        jsr fillrect
  2025 2D72 18			        clc
  2026 2D73 AD 56 06		        lda wxl
  2027 2D76 69 1E		        adc #30
  2028 2D78 8D 56 06		        sta wxl
  2029 2D7B AD 57 06		        lda wxh
  2030 2D7E 69 00		        adc #0
  2031 2D80 8D 57 06		        sta wxh
  2032 2D83 AE 46 06		        ldx s_kc
  2033 2D86 E8			        inx
  2034 2D87 E0 0A		        cpx #10
  2035 2D89 D0 C6		        bne dkw
  2036 				        ; black keys: CLEAR 7 rectangles, 16x34 (black notches at the top)
  2037 2D8B A9 FF		        lda #$FF
  2038 2D8D 8D 61 06		        sta pmode
  2039 2D90 A2 00		        ldx #0
  2040 2D92			dkb
  2041 2D92 8E 46 06		        stx s_kc
  2042 2D95 BD 61 38		        lda blackx_lo,x
  2043 2D98 8D 40 06		        sta xlo
  2044 2D9B BD 68 38		        lda blackx_hi,x
  2045 2D9E 8D 41 06		        sta xhi
  2046 2DA1 A9 84		        lda #KBTOP
  2047 2DA3 8D 42 06		        sta py
  2048 2DA6 A9 10		        lda #16
  2049 2DA8 8D 51 06		        sta rw
  2050 2DAB A9 22		        lda #34
  2051 2DAD 8D 52 06		        sta rh
  2052 2DB0 20 2C 2B		        jsr fillrect
  2053 2DB3 AE 46 06		        ldx s_kc
  2054 2DB6 E8			        inx
  2055 2DB7 E0 07		        cpx #7
  2056 2DB9 D0 D7		        bne dkb
  2057 2DBB A9 00		        lda #0
  2058 2DBD 8D 61 06		        sta pmode
  2059 2DC0 8D 4B 06		        sta bc_inv
  2060 				        ; white-key letters ON the keys (black on white)
  2061 2DC3 A9 FF		        lda #$FF
  2062 2DC5 8D 62 06		        sta bc_mode
  2063 2DC8 A2 00		        ldx #0
  2064 2DCA			dwl
  2065 2DCA 8E 46 06		        stx s_kc
  2066 2DCD BD 6F 38		        lda white_lblcol,x
  2067 2DD0 8D 49 06		        sta bc_col
  2068 2DD3 A9 A8		        lda #KBTOP+36
  2069 2DD5 8D 4A 06		        sta bc_scan
  2070 2DD8 BD 79 38		        lda white_lblch,x
  2071 2DDB 8D 48 06		        sta bc_code
  2072 2DDE 20 58 2B		        jsr blit_char
  2073 2DE1 AE 46 06		        ldx s_kc
  2074 2DE4 E8			        inx
  2075 2DE5 E0 0A		        cpx #10
  2076 2DE7 D0 E1		        bne dwl
  2077 				        ; black-key numbers ON the black keys (white on black)
  2078 2DE9 A9 00		        lda #0
  2079 2DEB 8D 62 06		        sta bc_mode
  2080 2DEE A2 00		        ldx #0
  2081 2DF0			dbl
  2082 2DF0 8E 46 06		        stx s_kc
  2083 2DF3 BD 83 38		        lda black_lblcol,x
  2084 2DF6 8D 49 06		        sta bc_col
  2085 2DF9 A9 88		        lda #KBTOP+4
  2086 2DFB 8D 4A 06		        sta bc_scan
  2087 2DFE BD 8A 38		        lda black_lblch,x
  2088 2E01 8D 48 06		        sta bc_code
  2089 2E04 20 58 2B		        jsr blit_char
  2090 2E07 AE 46 06		        ldx s_kc
  2091 2E0A E8			        inx
  2092 2E0B E0 07		        cpx #7
  2093 2E0D D0 E1		        bne dbl
  2094 2E0F 60			        rts
  2095
  2096 				; ============================================================================
  2097 				;  PER-FRAME DISPLAY
  2098 				; ============================================================================
  2099 				; redraw only the widgets whose value changed this frame (no per-frame
  2100 				; clear/redraw -> no flicker, low cost).
  2101 2E10			update_display
  2102 2E10 A9 00		        lda #0
  2103 2E12 8D 4B 06		        sta bc_inv
  2104 2E15 8D 62 06		        sta bc_mode
  2105 				        ; page ranges: 0 = 0..11 (osc/env/fx), 1 = 12..15 + sequencer grid,
  2106 				        ; 2 = 16..NPARAM-1 (filter etc.)
  2107 2E18 AD 00 06		        lda cur_param
  2108 2E1B C9 0C		        cmp #PER_PAGE
  2109 2E1D 90 28		        bcc ud_pg0
  2110 2E1F C9 10		        cmp #PG2BASE
  2111 2E21 90 12		        bcc ud_pg1
  2112 2E23 A9 10		        lda #PG2BASE            ; page 2
  2113 2E25 8D 8F 06		        sta pg_base
  2114 2E28 A9 13		        lda #NPARAM
  2115 2E2A 8D 90 06		        sta pg_end
  2116 2E2D A9 02		        lda #2
  2117 2E2F 8D 8D 06		        sta page
  2118 2E32 4C 54 2E		        jmp ud_pgset
  2119 2E35			ud_pg1
  2120 2E35 A9 0C		        lda #PER_PAGE           ; page 1 (sequencer)
  2121 2E37 8D 8F 06		        sta pg_base
  2122 2E3A A9 10		        lda #PG2BASE
  2123 2E3C 8D 90 06		        sta pg_end
  2124 2E3F A9 01		        lda #1
  2125 2E41 8D 8D 06		        sta page
  2126 2E44 4C 54 2E		        jmp ud_pgset
  2127 2E47			ud_pg0
  2128 2E47 A9 00		        lda #0
  2129 2E49 8D 8F 06		        sta pg_base
  2130 2E4C 8D 8D 06		        sta page
  2131 2E4F A9 0C		        lda #PER_PAGE
  2132 2E51 8D 90 06		        sta pg_end
  2133 2E54			ud_pgset
  2134 				        ; page change -> clear panel, redraw labels, force value + marker redraw
  2135 2E54 AD 8D 06		        lda page
  2136 2E57 CD 8E 06		        cmp prev_page
  2137 2E5A F0 37		        beq ud_pgsame
  2138 2E5C 8D 8E 06		        sta prev_page
  2139 2E5F 20 91 30		        jsr clear_panel
  2140 2E62 20 B7 30		        jsr draw_page_labels
  2141 2E65 AE 8F 06		        ldx pg_base
  2142 2E68 A9 FF		        lda #$FF
  2143 2E6A			ud_rst
  2144 2E6A 9D 70 06		        sta prev_disp,x
  2145 2E6D E8			        inx
  2146 2E6E EC 90 06		        cpx pg_end
  2147 2E71 D0 F7		        bne ud_rst
  2148 2E73 AD 00 06		        lda cur_param           ; labels already drawn (focused) above -> sync
  2149 2E76 8D 58 06		        sta prev_param          ; prev_param so ud_pgsame doesn't redraw them again
  2150 2E79 A9 FF		        lda #$FF
  2151 2E7B 8D A7 06		        sta prev_spos           ; force sequencer grid/transport redraw on page 2
  2152 2E7E 8D A8 06		        sta prev_splay
  2153 2E81 8D A9 06		        sta prev_srec
  2154 2E84 A9 01		        lda #1
  2155 2E86 8D AA 06		        sta seq_dirty
  2156 2E89 A2 03		        ldx #3                  ; clear_panel wiped the VU bars -> redraw from 0
  2157 2E8B A9 00		        lda #0
  2158 2E8D			ud_pgvm
  2159 2E8D 9D AD 06		        sta prev_vmeter,x
  2160 2E90 CA			        dex
  2161 2E91 10 FA		        bpl ud_pgvm
  2162 2E93			ud_pgsame
  2163 				        ; focus highlight: when the selection moves, redraw the page's labels so the
  2164 				        ; newly-selected one is inverse and the old one reverts to normal (replaces
  2165 				        ; the old '>' marker). draw_page_labels applies pl_inv per param.
  2166 2E93 AD 00 06		        lda cur_param
  2167 2E96 CD 58 06		        cmp prev_param
  2168 2E99 F0 06		        beq ud_nomk
  2169 2E9B 8D 58 06		        sta prev_param
  2170 2E9E 20 B7 30		        jsr draw_page_labels
  2171 2EA1			ud_nomk
  2172 				        ; per-parameter value redraw on change (current page only)
  2173 2EA1 AE 8F 06		        ldx pg_base
  2174 2EA4			ud_pl
  2175 2EA4 8E 46 06		        stx s_kc
  2176 2EA7 BD 51 37		        lda p_vaddr_lo,x
  2177 2EAA 85 CD		        sta srcptr
  2178 2EAC BD 64 37		        lda p_vaddr_hi,x
  2179 2EAF 85 CE		        sta srcptr+1
  2180 2EB1 A0 00		        ldy #0
  2181 2EB3 B1 CD		        lda (srcptr),y          ; current value
  2182 2EB5 DD 70 06		        cmp prev_disp,x
  2183 2EB8 F0 06		        beq ud_pn
  2184 2EBA 9D 70 06		        sta prev_disp,x
  2185 2EBD 20 A2 31		        jsr draw_param
  2186 2EC0			ud_pn
  2187 2EC0 AE 46 06		        ldx s_kc
  2188 2EC3 E8			        inx
  2189 2EC4 EC 90 06		        cpx pg_end
  2190 2EC7 D0 DB		        bne ud_pl
  2191 				        ; page-2 sequencer grid (step cells + play head + transport)
  2192 2EC9 AD 8D 06		        lda page
  2193 2ECC C9 01		        cmp #1
  2194 2ECE D0 03		        bne ud_noseq
  2195 2ED0 20 EB 2E		        jsr seq_draw
  2196 2ED3			ud_noseq
  2197 2ED3 20 46 32		        jsr hint_update         ; context-sensitive hint line above the keyboard
  2198 2ED6 20 09 30		        jsr draw_meters         ; per-voice VU bars (both pages)
  2199 				        ; NOTE name + active-key indicator (on note change)
  2200 2ED9 AD 07 06		        lda note_idx
  2201 2EDC CD 08 06		        cmp prev_note
  2202 2EDF F0 09		        beq ud_donote
  2203 2EE1 8D 08 06		        sta prev_note
  2204 2EE4 20 3F 33		        jsr draw_note
  2205 2EE7 20 0C 34		        jsr key_indicator
  2206 2EEA			ud_donote
  2207 2EEA 60			        rts
  2208
  2209 				; ----------------------------------------------------------------------------
  2210 				;  Sequencer page (page 2) display: 16 step cells (block = note, '.' = rest),
  2211 				;  a play-head marker above the active step, and PLAY/STOP + REC status.
  2212 				; ----------------------------------------------------------------------------
  2213 2EEB			seq_draw
  2214 2EEB A9 00		        lda #0
  2215 2EED 8D 4B 06		        sta bc_inv
  2216 2EF0 8D 62 06		        sta bc_mode
  2217 2EF3 AD AA 06		        lda seq_dirty           ; full step grid redraw when the pattern changed
  2218 2EF6 F0 57		        beq sd_nogrid
  2219 2EF8 A9 00		        lda #0
  2220 2EFA 8D AA 06		        sta seq_dirty
  2221 2EFD A2 00		        ldx #0
  2222 2EFF A9 00		        lda #0                  ; custom step glyphs draw as-is (no inverse)
  2223 2F01 8D 4B 06		        sta bc_inv
  2224 2F04 A2 00		        ldx #0
  2225 2F06			sd_cell
  2226 2F06 8E 46 06		        stx s_kc
  2227 2F09 8A			        txa                     ; col = 4 + step*2
  2228 2F0A 0A			        asl
  2229 2F0B 18			        clc
  2230 2F0C 69 04		        adc #4
  2231 2F0E 8D 49 06		        sta bc_col
  2232 2F11 A9 38		        lda #56
  2233 2F13 8D 4A 06		        sta bc_scan
  2234 2F16 AE 46 06		        ldx s_kc
  2235 				        ; map the step value -> custom-glyph index (0 rest,1 note,2 tie,3 drum)
  2236 2F19 BD 91 06		        lda seq_notes,x
  2237 2F1C C9 FF		        cmp #$FF
  2238 2F1E D0 04		        bne sd_n1
  2239 2F20 A9 00		        lda #0                  ; rest -> dot
  2240 2F22 F0 12		        beq sd_putcell
  2241 2F24			sd_n1
  2242 2F24 C9 FE		        cmp #$FE
  2243 2F26 D0 04		        bne sd_n2
  2244 2F28 A9 02		        lda #2                  ; tie -> bar
  2245 2F2A D0 0A		        bne sd_putcell
  2246 2F2C			sd_n2
  2247 2F2C C9 FD		        cmp #$FD
  2248 2F2E D0 04		        bne sd_note
  2249 2F30 A9 03		        lda #3                  ; drum -> diamond
  2250 2F32 D0 02		        bne sd_putcell
  2251 2F34			sd_note
  2252 2F34 A9 01		        lda #1                  ; pitched note -> filled square
  2253 2F36			sd_putcell
  2254 2F36 0A			        asl                     ; index*8 -> offset into seq_glyphs (8 bytes each)
  2255 2F37 0A			        asl
  2256 2F38 0A			        asl
  2257 2F39 18			        clc
  2258 2F3A 69 CA		        adc #<seq_glyphs
  2259 2F3C 85 CB		        sta scrptr
  2260 2F3E A9 00		        lda #0
  2261 2F40 69 3C		        adc #>seq_glyphs
  2262 2F42 85 CC		        sta scrptr+1
  2263 2F44 20 82 2B		        jsr blit_glyph          ; blit our custom 8x8 bitmap at bc_col/bc_scan
  2264 2F47 AE 46 06		        ldx s_kc
  2265 2F4A E8			        inx
  2266 2F4B E0 10		        cpx #16
  2267 2F4D D0 B7		        bne sd_cell
  2268 2F4F			sd_nogrid
  2269 2F4F AD A1 06		        lda seq_play            ; transport text on change
  2270 2F52 CD A8 06		        cmp prev_splay
  2271 2F55 D0 08		        bne sd_txt
  2272 2F57 AD A2 06		        lda seq_rec
  2273 2F5A CD A9 06		        cmp prev_srec
  2274 2F5D F0 56		        beq sd_phead
  2275 2F5F			sd_txt
  2276 2F5F AD A1 06		        lda seq_play
  2277 2F62 8D A8 06		        sta prev_splay
  2278 2F65 AD A2 06		        lda seq_rec
  2279 2F68 8D A9 06		        sta prev_srec
  2280 2F6B AD A1 06		        lda seq_play
  2281 2F6E F0 0B		        beq sd_stop
  2282 2F70 A9 9B		        lda #<txt_play
  2283 2F72 85 CD		        sta srcptr
  2284 2F74 A9 3D		        lda #>txt_play
  2285 2F76 85 CE		        sta srcptr+1
  2286 2F78 4C 83 2F		        jmp sd_pput
  2287 2F7B			sd_stop
  2288 2F7B A9 A0		        lda #<txt_stop
  2289 2F7D 85 CD		        sta srcptr
  2290 2F7F A9 3D		        lda #>txt_stop
  2291 2F81 85 CE		        sta srcptr+1
  2292 2F83			sd_pput
  2293 2F83 A9 04		        lda #4
  2294 2F85 8D 49 06		        sta bc_col
  2295 2F88 A9 48		        lda #72
  2296 2F8A 8D 4A 06		        sta bc_scan
  2297 2F8D 20 BB 2B		        jsr print_strz
  2298 2F90 AD A2 06		        lda seq_rec
  2299 2F93 F0 0B		        beq sd_norec
  2300 2F95 A9 A5		        lda #<txt_rec
  2301 2F97 85 CD		        sta srcptr
  2302 2F99 A9 3D		        lda #>txt_rec
  2303 2F9B 85 CE		        sta srcptr+1
  2304 2F9D 4C A8 2F		        jmp sd_rput
  2305 2FA0			sd_norec
  2306 2FA0 A9 A9		        lda #<txt_blk3
  2307 2FA2 85 CD		        sta srcptr
  2308 2FA4 A9 3D		        lda #>txt_blk3
  2309 2FA6 85 CE		        sta srcptr+1
  2310 2FA8			sd_rput
  2311 2FA8 A9 0A		        lda #10
  2312 2FAA 8D 49 06		        sta bc_col
  2313 2FAD A9 48		        lda #72
  2314 2FAF 8D 4A 06		        sta bc_scan
  2315 2FB2 20 BB 2B		        jsr print_strz
  2316 2FB5			sd_phead
  2317 				        ; the ↓ head marks the active step: the WRITE head during step entry
  2318 				        ; (rec armed + stopped), else the PLAY/clock head (playback or real-time).
  2319 2FB5 AD A2 06		        lda seq_rec
  2320 2FB8 F0 0B		        beq sd_ph_useplay
  2321 2FBA AD A1 06		        lda seq_play
  2322 2FBD D0 06		        bne sd_ph_useplay       ; real-time record -> clock head, not write head
  2323 2FBF AD A4 06		        lda seq_wpos
  2324 2FC2 4C C8 2F		        jmp sd_ph_have
  2325 2FC5			sd_ph_useplay
  2326 2FC5 AD A3 06		        lda seq_pos
  2327 2FC8			sd_ph_have
  2328 2FC8 8D 0C 06		        sta tmpA                ; tmpA = step to mark (survives blit_char)
  2329 2FCB CD A7 06		        cmp prev_spos
  2330 2FCE F0 38		        beq sd_done
  2331 2FD0 AD A7 06		        lda prev_spos
  2332 2FD3 C9 10		        cmp #16
  2333 2FD5 B0 14		        bcs sd_ph_new           ; previous head invalid ($FF) -> nothing to erase
  2334 2FD7 0A			        asl
  2335 2FD8 18			        clc
  2336 2FD9 69 04		        adc #4
  2337 2FDB 8D 49 06		        sta bc_col
  2338 2FDE A9 30		        lda #48
  2339 2FE0 8D 4A 06		        sta bc_scan
  2340 2FE3 A9 00		        lda #$00
  2341 2FE5 8D 48 06		        sta bc_code
  2342 2FE8 20 58 2B		        jsr blit_char
  2343 2FEB			sd_ph_new
  2344 2FEB AD 0C 06		        lda tmpA
  2345 2FEE 0A			        asl
  2346 2FEF 18			        clc
  2347 2FF0 69 04		        adc #4
  2348 2FF2 8D 49 06		        sta bc_col
  2349 2FF5 A9 30		        lda #48
  2350 2FF7 8D 4A 06		        sta bc_scan
  2351 2FFA A9 5D		        lda #$5D                ; down-arrow marker (distinct from note blocks)
  2352 2FFC 8D 48 06		        sta bc_code
  2353 2FFF 20 58 2B		        jsr blit_char
  2354 3002 AD 0C 06		        lda tmpA
  2355 3005 8D A7 06		        sta prev_spos
  2356 3008			sd_done
  2357 3008 60			        rts
  2358
  2359 				; ----------------------------------------------------------------------------
  2360 				;  Per-voice level meters: 4 horizontal VU bars at scan 9-13, bar width =
  2361 				;  voice envelope level * 3 px. Drawn INCREMENTALLY -- each frame only the
  2362 				;  delta between the old and new level is set/cleared, so meters animating
  2363 				;  with the envelopes cost a few pixels per voice, not a full redraw.
  2364 				; ----------------------------------------------------------------------------
  2365 3009			draw_meters
  2366 3009 A2 00		        ldx #0
  2367 300B			dm_loop
  2368 300B 8E 46 06		        stx s_kc
  2369 300E BD 14 06		        lda voice_level,x
  2370 3011 DD AD 06		        cmp prev_vmeter,x
  2371 3014 F0 69		        beq dm_next
  2372 3016 BC AD 06		        ldy prev_vmeter,x       ; old level
  2373 3019 8C 0D 06		        sty tmp2
  2374 301C 9D AD 06		        sta prev_vmeter,x       ; store new
  2375 301F CD 0D 06		        cmp tmp2                ; new - old
  2376 3022 B0 14		        bcs dm_rise
  2377 3024 A9 FF		        lda #$FF                ; level fell -> CLEAR from new to old
  2378 3026 8D 61 06		        sta pmode
  2379 3029 AD 0D 06		        lda tmp2
  2380 302C 8D B2 06		        sta dm_hi               ; hi = old
  2381 302F BD AD 06		        lda prev_vmeter,x
  2382 3032 8D B1 06		        sta dm_lo               ; lo = new
  2383 3035 4C 49 30		        jmp dm_calc
  2384 3038			dm_rise
  2385 3038 A9 00		        lda #0                  ; level rose -> SET from old to new
  2386 303A 8D 61 06		        sta pmode
  2387 303D AD 0D 06		        lda tmp2
  2388 3040 8D B1 06		        sta dm_lo               ; lo = old
  2389 3043 BD AD 06		        lda prev_vmeter,x
  2390 3046 8D B2 06		        sta dm_hi               ; hi = new
  2391 3049			dm_calc
  2392 3049 AE 46 06		        ldx s_kc
  2393 304C AD B1 06		        lda dm_lo               ; xlo = met_x[v] + lo*3
  2394 304F 0A			        asl
  2395 3050 18			        clc
  2396 3051 6D B1 06		        adc dm_lo
  2397 3054 18			        clc
  2398 3055 7D 8D 30		        adc met_x,x
  2399 3058 8D 40 06		        sta xlo
  2400 305B A9 00		        lda #0
  2401 305D 8D 41 06		        sta xhi
  2402 3060 AD B2 06		        lda dm_hi               ; rw = (hi - lo)*3
  2403 3063 38			        sec
  2404 3064 ED B1 06		        sbc dm_lo
  2405 3067 8D 0C 06		        sta tmpA
  2406 306A 0A			        asl
  2407 306B 18			        clc
  2408 306C 6D 0C 06		        adc tmpA
  2409 306F 8D 51 06		        sta rw
  2410 3072 A9 09		        lda #9
  2411 3074 8D 42 06		        sta py
  2412 3077 A9 05		        lda #5
  2413 3079 8D 52 06		        sta rh
  2414 307C 20 2C 2B		        jsr fillrect
  2415 307F			dm_next
  2416 307F AE 46 06		        ldx s_kc
  2417 3082 E8			        inx
  2418 3083 E0 04		        cpx #4
  2419 3085 D0 84		        bne dm_loop
  2420 3087 A9 00		        lda #0
  2421 3089 8D 61 06		        sta pmode
  2422 308C 60			        rts
  2423 308D 04 48 8C D0		met_x   .byte 4,72,140,208
  2424
  2425 				; clear the panel area (scan 8..123); leaves title row and keyboard intact
  2426 3091			clear_panel
  2427 3091 A9 08		        lda #8
  2428 3093 8D 44 06		        sta s1
  2429 3096			cpan
  2430 3096 AC 44 06		        ldy s1
  2431 3099 B9 00 60		        lda linetab_lo,y
  2432 309C 85 CB		        sta scrptr
  2433 309E B9 C0 60		        lda linetab_hi,y
  2434 30A1 85 CC		        sta scrptr+1
  2435 30A3 A0 27		        ldy #39
  2436 30A5 A9 00		        lda #0
  2437 30A7			cpan2
  2438 30A7 91 CB		        sta (scrptr),y
  2439 30A9 88			        dey
  2440 30AA 10 FB		        bpl cpan2
  2441 30AC EE 44 06		        inc s1
  2442 30AF AD 44 06		        lda s1
  2443 30B2 C9 7C		        cmp #124
  2444 30B4 D0 E0		        bne cpan
  2445 30B6 60			        rts
  2446
  2447 				; draw the current page's parameter labels
  2448 30B7			draw_page_labels
  2449 30B7 A9 00		        lda #0
  2450 30B9 8D 4B 06		        sta bc_inv
  2451 30BC 8D 62 06		        sta bc_mode
  2452 30BF AE 8F 06		        ldx pg_base
  2453 30C2			dpgl
  2454 30C2 8E 46 06		        stx s_kc
  2455 30C5 BD 77 37		        lda p_lblptr_lo,x
  2456 30C8 85 CD		        sta srcptr
  2457 30CA BD 8A 37		        lda p_lblptr_hi,x
  2458 30CD 85 CE		        sta srcptr+1
  2459 30CF BD 18 37		        lda p_lblcol,x
  2460 30D2 8D 49 06		        sta bc_col
  2461 30D5 BD 05 37		        lda p_scan,x
  2462 30D8 8D 4A 06		        sta bc_scan
  2463 30DB BD 9D 37		        lda p_hl,x
  2464 30DE 8D CC 06		        sta hl_idx
  2465 30E1 BD B0 37		        lda p_hl_shift,x        ; is this param's shortcut a Shift+letter?
  2466 30E4 8D D3 06		        sta hl_shift
  2467 30E7 A9 00		        lda #0                  ; focus highlight: inverse the selected param's label
  2468 30E9 EC 00 06		        cpx cur_param
  2469 30EC D0 02		        bne dpgl_inv
  2470 30EE A9 FF		        lda #$FF
  2471 30F0			dpgl_inv
  2472 30F0 8D D2 06		        sta pl_inv
  2473 30F3 20 37 31		        jsr print_label         ; (leaves bc_col at the label's end column)
  2474 30F6 AD 04 06		        lda clock15             ; 16-bit mode disables some FX -> strike them through
  2475 30F9 C9 02		        cmp #2
  2476 30FB D0 0B		        bne dpgl_next
  2477 30FD AE 46 06		        ldx s_kc
  2478 3100 BD C3 37		        lda p_inert16,x
  2479 3103 F0 03		        beq dpgl_next
  2480 3105 20 12 31		        jsr draw_strike
  2481 3108			dpgl_next
  2482 3108 AE 46 06		        ldx s_kc
  2483 310B E8			        inx
  2484 310C EC 90 06		        cpx pg_end
  2485 310F D0 B1		        bne dpgl
  2486 3111 60			        rts
  2487
  2488 				; strike a horizontal line through the label just drawn (cols p_lblcol..bc_col at
  2489 				; the cell's middle row) -> the "this control is inert in 16-bit mode" marker.
  2490 3112			draw_strike
  2491 3112 AD 4A 06		        lda bc_scan
  2492 3115 18			        clc
  2493 3116 69 03		        adc #3
  2494 3118 A8			        tay
  2495 3119 B9 00 60		        lda linetab_lo,y
  2496 311C 85 CF		        sta adjptr
  2497 311E B9 C0 60		        lda linetab_hi,y
  2498 3121 85 D0		        sta adjptr+1
  2499 3123 AE 46 06		        ldx s_kc
  2500 3126 BC 18 37		        ldy p_lblcol,x
  2501 3129			ds_l
  2502 3129 CC 49 06		        cpy bc_col
  2503 312C B0 08		        bcs ds_done
  2504 312E A9 FF		        lda #$FF
  2505 3130 91 CF		        sta (adjptr),y
  2506 3132 C8			        iny
  2507 3133 4C 29 31		        jmp ds_l
  2508 3136			ds_done
  2509 3136 60			        rts
  2510
  2511 				; Print a label. The char at index hl_idx is the shortcut key, drawn highlighted
  2512 				; (HL_STYLE 1 = underline). pl_inv ($FF) renders the whole label in inverse video
  2513 				; -> the FOCUS highlight for the selected param (underline=shortcut, inverse=focus).
  2514 3137			print_label
  2515 3137 A9 00		        lda #0
  2516 3139 8D 4C 06		        sta psi
  2517 313C AD D2 06		        lda pl_inv              ; base inverse for every cell (focus highlight)
  2518 313F 8D 4B 06		        sta bc_inv
  2519 3142			pl_l
  2520 3142 AC 4C 06		        ldy psi
  2521 3145 B1 CD		        lda (srcptr),y
  2522 3147 C9 FF		        cmp #$FF
  2523 3149 F0 33		        beq pl_done
  2524 314B 8D 48 06		        sta bc_code
  2525 314E AD 4C 06		        lda psi
  2526 3151 CD CC 06		        cmp hl_idx
  2527 3154 D0 1C		        bne pl_normal
  2528 				    .if HL_STYLE = 0
  2529 				        lda pl_inv              ; shortcut char = opposite of the label's base
  2530 				        eor #$FF
  2531 				        sta bc_inv
  2532 				        jsr blit_char
  2533 				        lda pl_inv
  2534 				        sta bc_inv
  2535 				    .else
  2536 3156 AD D3 06		        lda hl_shift            ; SHIFT shortcut -> draw the char OPPOSITE the
  2537 3159 F0 08		        beq pl_sc_draw          ; label's video (the cue for "add Shift")
  2538 315B AD D2 06		        lda pl_inv
  2539 315E 49 FF		        eor #$FF
  2540 3160 8D 4B 06		        sta bc_inv
  2541 3163			pl_sc_draw
  2542 3163 20 58 2B		        jsr blit_char           ; glyph + underline beneath it
  2543 3166 20 84 31		        jsr draw_underline
  2544 3169 AD D2 06		        lda pl_inv              ; restore base video for the remaining chars
  2545 316C 8D 4B 06		        sta bc_inv
  2546 				    .endif
  2547 316F 4C 75 31		        jmp pl_adv
  2548 3172			pl_normal
  2549 3172 20 58 2B		        jsr blit_char
  2550 3175			pl_adv
  2551 3175 EE 49 06		        inc bc_col
  2552 3178 EE 4C 06		        inc psi
  2553 317B 4C 42 31		        jmp pl_l
  2554 317E			pl_done
  2555 317E A9 00		        lda #0                  ; leave bc_inv clean (num2/knob draws assume 0)
  2556 3180 8D 4B 06		        sta bc_inv
  2557 3183 60			        rts
  2558
  2559 				; DEMO: underline the glyph cell at bc_col, bottom row of bc_scan
  2560 3184			draw_underline
  2561 3184 AD 4A 06		        lda bc_scan
  2562 3187 18			        clc
  2563 3188 69 07		        adc #7
  2564 318A A8			        tay
  2565 318B B9 00 60		        lda linetab_lo,y
  2566 318E 18			        clc
  2567 318F 6D 49 06		        adc bc_col
  2568 3192 85 CF		        sta adjptr
  2569 3194 B9 C0 60		        lda linetab_hi,y
  2570 3197 69 00		        adc #0
  2571 3199 85 D0		        sta adjptr+1
  2572 319B A0 00		        ldy #0
  2573 319D A9 FF		        lda #$FF
  2574 319F 91 CF		        sta (adjptr),y
  2575 31A1 60			        rts
  2576
  2577 				; draw one parameter widget; X = param index
  2578 31A2			draw_param
  2579 31A2 BD F2 36		        lda p_kind,x
  2580 31A5 C9 02		        cmp #K_WAVE
  2581 31A7 D0 03		        bne dp_n1
  2582 31A9 4C A1 34		        jmp draw_wave_selector
  2583 31AC			dp_n1
  2584 31AC C9 03		        cmp #K_CLK
  2585 31AE D0 03		        bne dp_chkpre
  2586 31B0 4C 22 35		        jmp draw_clk_toggle
  2587 31B3			dp_chkpre
  2588 31B3 E0 11		        cpx #17                 ; PRESET -> knob + name (INIT/PAD/LEAD/ARP) or SAVED
  2589 31B5 D0 03		        bne dp_n2
  2590 31B7 4C B7 32		        jmp draw_preset_widget
  2591 31BA			dp_n2
  2592 31BA BD 2B 37		        lda p_knobcx,x          ; KNOB / OCT: common knob setup
  2593 31BD 8D 4E 06		        sta kcx
  2594 31C0 BD 05 37		        lda p_scan,x
  2595 31C3 18			        clc
  2596 31C4 69 05		        adc #5
  2597 31C6 8D 4F 06		        sta kcy
  2598 31C9 BD 3E 37		        lda p_numcol,x
  2599 31CC 8D 6C 06		        sta dp_numcol
  2600 31CF BD 05 37		        lda p_scan,x
  2601 31D2 8D 6D 06		        sta dp_scan
  2602 31D5 BD FA 37		        lda p_zoff,x            ; capture before draw_knob clobbers X
  2603 31D8 8D D0 06		        sta dp_zoff
  2604 31DB BD 51 37		        lda p_vaddr_lo,x
  2605 31DE 85 CD		        sta srcptr
  2606 31E0 BD 64 37		        lda p_vaddr_hi,x
  2607 31E3 85 CE		        sta srcptr+1
  2608 31E5 A0 00		        ldy #0
  2609 31E7 B1 CD		        lda (srcptr),y
  2610 31E9 8D 6B 06		        sta dp_val
  2611 31EC BD F2 36		        lda p_kind,x
  2612 31EF C9 01		        cmp #K_OCT
  2613 31F1 F0 37		        beq dp_oct
  2614 31F3 AD 6B 06		        lda dp_val              ; --- K_KNOB ---
  2615 31F6 8D 50 06		        sta kfrm
  2616 31F9 20 21 2C		        jsr draw_knob
  2617 31FC AD 6C 06		        lda dp_numcol
  2618 31FF 8D 49 06		        sta bc_col
  2619 3202 AD 6D 06		        lda dp_scan
  2620 3205 8D 4A 06		        sta bc_scan
  2621 3208 AD D0 06		        lda dp_zoff             ; OFF-capable param sitting at 0 -> show "OFF"
  2622 320B F0 09		        beq dp_num
  2623 320D AD 6B 06		        lda dp_val
  2624 3210 D0 04		        bne dp_num
  2625 3212 20 20 33		        jsr draw_off
  2626 3215 60			        rts
  2627 3216			dp_num
  2628 3216 AD 6B 06		        lda dp_val
  2629 3219 20 F8 2B		        jsr num2                ; num2 leaves bc_col at the 3rd cell
  2630 321C AD D0 06		        lda dp_zoff             ; OFF-capable -> clear the 3rd cell ("OFF" leftover)
  2631 321F F0 08		        beq dp_knobdone
  2632 3221 A9 00		        lda #0
  2633 3223 8D 48 06		        sta bc_code
  2634 3226 20 58 2B		        jsr blit_char
  2635 3229			dp_knobdone
  2636 3229 60			        rts
  2637 322A			dp_oct
  2638 322A AC 6B 06		        ldy dp_val              ; --- K_OCT ---
  2639 322D B9 5C 38		        lda oct_knob16,y
  2640 3230 8D 50 06		        sta kfrm
  2641 3233 20 21 2C		        jsr draw_knob
  2642 3236 AD 6C 06		        lda dp_numcol
  2643 3239 8D 49 06		        sta bc_col
  2644 323C AD 6D 06		        lda dp_scan
  2645 323F 8D 4A 06		        sta bc_scan
  2646 3242 20 BA 33		        jsr draw_octave_num
  2647 3245 60			        rts
  2648
  2649 				; Context-sensitive hint line. Pick an id from what's selected, and only redraw
  2650 				; when it changes (prev_hint):  2 = PRESET selected -> save tip,
  2651 				; 1 = sequencer page -> transport tip,  0 = default -> nav/hold tip.
  2652 3246			hint_update
  2653 3246 AD 00 06		        lda cur_param
  2654 3249 C9 11		        cmp #17                 ; PRESET param selected?
  2655 324B D0 05		        bne hu_n1
  2656 324D A9 02		        lda #2
  2657 324F 4C 60 32		        jmp hu_have
  2658 3252			hu_n1
  2659 3252 AD 8D 06		        lda page
  2660 3255 C9 01		        cmp #1                  ; sequencer page?
  2661 3257 D0 05		        bne hu_n2
  2662 3259 A9 01		        lda #1
  2663 325B 4C 60 32		        jmp hu_have
  2664 325E			hu_n2
  2665 325E A9 00		        lda #0
  2666 3260			hu_have
  2667 3260 CD D1 06		        cmp prev_hint
  2668 3263 F0 06		        beq hu_done
  2669 3265 8D D1 06		        sta prev_hint
  2670 3268 20 6C 32		        jsr draw_hint
  2671 326B			hu_done
  2672 326B 60			        rts
  2673
  2674 				; draw the hint string for id in prev_hint, centred on the HINTSCAN row
  2675 326C			draw_hint
  2676 326C 20 93 32		        jsr clear_hint
  2677 326F AE D1 06		        ldx prev_hint
  2678 3272 BD E3 3D		        lda hint_lo,x
  2679 3275 85 CD		        sta srcptr
  2680 3277 BD E6 3D		        lda hint_hi,x
  2681 327A 85 CE		        sta srcptr+1
  2682 327C BD E9 3D		        lda hint_col,x
  2683 327F 8D 49 06		        sta bc_col
  2684 3282 A9 7C		        lda #HINTSCAN
  2685 3284 8D 4A 06		        sta bc_scan
  2686 3287 A9 00		        lda #0
  2687 3289 8D 4B 06		        sta bc_inv
  2688 328C 8D 62 06		        sta bc_mode
  2689 328F 20 BB 2B		        jsr print_strz
  2690 3292 60			        rts
  2691
  2692 				; blank the 8-scanline hint row (full 40-byte width) before redrawing
  2693 3293			clear_hint
  2694 3293 A9 7C		        lda #HINTSCAN
  2695 3295 8D 44 06		        sta s1
  2696 3298 A2 08		        ldx #8
  2697 329A			ch_row
  2698 329A AC 44 06		        ldy s1
  2699 329D B9 00 60		        lda linetab_lo,y
  2700 32A0 85 CB		        sta scrptr
  2701 32A2 B9 C0 60		        lda linetab_hi,y
  2702 32A5 85 CC		        sta scrptr+1
  2703 32A7 A0 27		        ldy #39
  2704 32A9 A9 00		        lda #0
  2705 32AB			ch_col
  2706 32AB 91 CB		        sta (scrptr),y
  2707 32AD 88			        dey
  2708 32AE 10 FB		        bpl ch_col
  2709 32B0 EE 44 06		        inc s1
  2710 32B3 CA			        dex
  2711 32B4 D0 E4		        bne ch_row
  2712 32B6 60			        rts
  2713
  2714 				; PRESET widget: knob (slot 0..3) + the slot NAME (INIT/PAD/LEAD/ARP), or a brief
  2715 				; "SAVED" flash right after a save. X = 17 on entry. Names are 5 cells wide (padded)
  2716 				; so they overwrite each other and "SAVED" cleanly.
  2717 32B7			draw_preset_widget
  2718 32B7 BD 2B 37		        lda p_knobcx,x
  2719 32BA 8D 4E 06		        sta kcx
  2720 32BD BD 05 37		        lda p_scan,x
  2721 32C0 18			        clc
  2722 32C1 69 05		        adc #5
  2723 32C3 8D 4F 06		        sta kcy
  2724 32C6 BD 3E 37		        lda p_numcol,x
  2725 32C9 8D 6C 06		        sta dp_numcol
  2726 32CC BD 05 37		        lda p_scan,x
  2727 32CF 8D 6D 06		        sta dp_scan
  2728 32D2 AD C5 06		        lda preset_slot
  2729 32D5 8D 50 06		        sta kfrm
  2730 32D8 20 21 2C		        jsr draw_knob
  2731 32DB A9 00		        lda #0
  2732 32DD 8D 4B 06		        sta bc_inv
  2733 32E0 8D 62 06		        sta bc_mode
  2734 32E3 AD 6C 06		        lda dp_numcol
  2735 32E6 8D 49 06		        sta bc_col
  2736 32E9 AD 6D 06		        lda dp_scan
  2737 32EC 8D 4A 06		        sta bc_scan
  2738 32EF AD D4 06		        lda saved_flash
  2739 32F2 F0 0B		        beq dpw_name
  2740 32F4 A9 EC		        lda #<txt_saved
  2741 32F6 85 CD		        sta srcptr
  2742 32F8 A9 3D		        lda #>txt_saved
  2743 32FA 85 CE		        sta srcptr+1
  2744 32FC 4C 0C 33		        jmp dpw_print
  2745 32FF			dpw_name
  2746 32FF AC C5 06		        ldy preset_slot
  2747 3302 B9 0A 3E		        lda preset_name_lo,y
  2748 3305 85 CD		        sta srcptr
  2749 3307 B9 0E 3E		        lda preset_name_hi,y
  2750 330A 85 CE		        sta srcptr+1
  2751 330C			dpw_print
  2752 330C 20 BB 2B		        jsr print_strz
  2753 330F 60			        rts
  2754
  2755 				; tick the SAVED flash; when it expires, force the PRESET name to redraw
  2756 3310			saved_flash_tick
  2757 3310 AD D4 06		        lda saved_flash
  2758 3313 F0 0A		        beq sft_done
  2759 3315 CE D4 06		        dec saved_flash
  2760 3318 D0 05		        bne sft_done
  2761 331A A9 FF		        lda #$FF                ; flash ended -> force PRESET value cell to redraw
  2762 331C 8D 81 06		        sta prev_disp+17
  2763 331F			sft_done
  2764 331F 60			        rts
  2765
  2766 				; "OFF" (3 chars) at bc_col/bc_scan -> shown for effect params at value 0
  2767 3320			draw_off
  2768 3320 A9 2F		        lda #$2F                ; 'O'
  2769 3322 8D 48 06		        sta bc_code
  2770 3325 20 58 2B		        jsr blit_char
  2771 3328 EE 49 06		        inc bc_col
  2772 332B A9 26		        lda #$26                ; 'F'
  2773 332D 8D 48 06		        sta bc_code
  2774 3330 20 58 2B		        jsr blit_char
  2775 3333 EE 49 06		        inc bc_col
  2776 3336 A9 26		        lda #$26                ; 'F'
  2777 3338 8D 48 06		        sta bc_code
  2778 333B 20 58 2B		        jsr blit_char
  2779 333E 60			        rts
  2780
  2781 				; NOTE name (3 chars) at col 7, scan 112 -- blank when silent
  2782 333F			draw_note
  2783 333F A9 23		        lda #35
  2784 3341 8D 49 06		        sta bc_col
  2785 3344 A9 00		        lda #0
  2786 3346 8D 4A 06		        sta bc_scan
  2787 3349 AD 07 06		        lda note_idx
  2788 334C C9 FF		        cmp #$FF
  2789 334E D0 15		        bne dn_play
  2790 3350 A9 00		        lda #$00                ; blank 3 cells
  2791 3352 8D 48 06		        sta bc_code
  2792 3355 20 58 2B		        jsr blit_char
  2793 3358 EE 49 06		        inc bc_col
  2794 335B 20 58 2B		        jsr blit_char
  2795 335E EE 49 06		        inc bc_col
  2796 3361 20 58 2B		        jsr blit_char
  2797 3364 60			        rts
  2798 3365			dn_play
  2799 3365 AE 03 06		        ldx octave
  2800 3368 BD C8 35		        lda octave_base,x
  2801 336B 18			        clc
  2802 336C 6D 07 06		        adc note_idx
  2803 336F A2 00		        ldx #0
  2804 3371			dn_div
  2805 3371 C9 0C		        cmp #12
  2806 3373 90 07		        bcc dn_div_done
  2807 3375 38			        sec
  2808 3376 E9 0C		        sbc #12
  2809 3378 E8			        inx
  2810 3379 4C 71 33		        jmp dn_div
  2811 337C			dn_div_done
  2812 				        ; A = semitone 0..11, X = octave step.  NB: blit_char clobbers X/s0/s1,
  2813 				        ; so hold our values in tmpA/tmp2 (which blit_char does not touch).
  2814 337C 0A			        asl                     ; semitone*2 -> note_names index
  2815 337D 8D 0C 06		        sta tmpA
  2816 3380 8A			        txa
  2817 3381 18			        clc
  2818 3382 69 02		        adc #2                  ; chromatic table is labelled from octave 2 (C2..)
  2819 				        ; The chromatic dividers are tuned for the 15 kHz / 16-bit clocks. In
  2820 				        ; NORMAL mode the 64 kHz clock makes every note sound TWO octaves higher
  2821 				        ; (8-bit AUDF can't reach the low octaves), so the displayed octave must
  2822 				        ; match what's actually heard: add 2 in NORMAL mode only.
  2823 3384 AC 04 06		        ldy clock15
  2824 3387 D0 03		        bne dn_oct_done         ; 15KHZ(1) / 16-BIT(2): label already correct
  2825 3389 18			        clc
  2826 338A 69 02		        adc #2                  ; NORMAL(0): +2 octaves to match the real pitch
  2827 338C			dn_oct_done
  2828 338C 18			        clc
  2829 338D 69 10		        adc #$10                ; octave digit screen code
  2830 338F 8D 0D 06		        sta tmp2
  2831 3392 AE 0C 06		        ldx tmpA                ; name char 1
  2832 3395 BD FB 35		        lda note_names,x
  2833 3398 8D 48 06		        sta bc_code
  2834 339B 20 58 2B		        jsr blit_char
  2835 339E EE 49 06		        inc bc_col
  2836 33A1 AE 0C 06		        ldx tmpA                ; name char 2
  2837 33A4 BD FC 35		        lda note_names+1,x
  2838 33A7 8D 48 06		        sta bc_code
  2839 33AA 20 58 2B		        jsr blit_char
  2840 33AD EE 49 06		        inc bc_col
  2841 33B0 AD 0D 06		        lda tmp2                ; octave digit
  2842 33B3 8D 48 06		        sta bc_code
  2843 33B6 20 58 2B		        jsr blit_char
  2844 33B9 60			        rts
  2845
  2846 				; octave value as sign + digit at bc_col,bc_scan.  NB: blit_char clobbers
  2847 				; A/X/Y/s0/s1, so the sign char goes in tmpA and the digit in tmp2 first,
  2848 				; then both are blitted (no live value kept across a blit_char call).
  2849 33BA			draw_octave_num
  2850 33BA AD 03 06		        lda octave
  2851 33BD 38			        sec
  2852 33BE E9 02		        sbc #2                  ; A = n (-2..+2)
  2853 33C0 30 23		        bmi don_neg
  2854 33C2 F0 14		        beq don_zero
  2855 33C4 A9 0B		        lda #$0B                ; n > 0: '+'
  2856 33C6 8D 0C 06		        sta tmpA
  2857 33C9 AD 03 06		        lda octave              ; digit = n = octave-2
  2858 33CC 38			        sec
  2859 33CD E9 02		        sbc #2
  2860 33CF 18			        clc
  2861 33D0 69 10		        adc #$10
  2862 33D2 8D 0D 06		        sta tmp2
  2863 33D5 4C F6 33		        jmp don_emit
  2864 33D8			don_zero
  2865 33D8 A9 00		        lda #$00                ; n = 0: blank sign, '0'
  2866 33DA 8D 0C 06		        sta tmpA
  2867 33DD A9 10		        lda #$10
  2868 33DF 8D 0D 06		        sta tmp2
  2869 33E2 4C F6 33		        jmp don_emit
  2870 33E5			don_neg
  2871 33E5 A9 0D		        lda #$0D                ; n < 0: '-'
  2872 33E7 8D 0C 06		        sta tmpA
  2873 33EA A9 02		        lda #2                  ; digit = -n = 2 - octave
  2874 33EC 38			        sec
  2875 33ED ED 03 06		        sbc octave
  2876 33F0 18			        clc
  2877 33F1 69 10		        adc #$10
  2878 33F3 8D 0D 06		        sta tmp2
  2879 33F6			don_emit
  2880 33F6 AD 0C 06		        lda tmpA
  2881 33F9 8D 48 06		        sta bc_code
  2882 33FC 20 58 2B		        jsr blit_char
  2883 33FF EE 49 06		        inc bc_col
  2884 3402 AD 0D 06		        lda tmp2
  2885 3405 8D 48 06		        sta bc_code
  2886 3408 20 58 2B		        jsr blit_char
  2887 340B 60			        rts
  2888
  2889 				; active-key indicator: clear a strip below the keys, draw a bar at the key
  2890 340C			key_indicator
  2891 				        ; clear strip y=186..190 (5 rows, full 40 bytes)
  2892 340C A9 BA		        lda #186
  2893 340E 8D 44 06		        sta s1
  2894 3411 A2 05		        ldx #5
  2895 3413			ki_clr
  2896 3413 AC 44 06		        ldy s1
  2897 3416 B9 00 60		        lda linetab_lo,y
  2898 3419 85 CB		        sta scrptr
  2899 341B B9 C0 60		        lda linetab_hi,y
  2900 341E 85 CC		        sta scrptr+1
  2901 3420 A0 27		        ldy #39
  2902 3422 A9 00		        lda #0
  2903 3424			ki_clr2
  2904 3424 91 CB		        sta (scrptr),y
  2905 3426 88			        dey
  2906 3427 10 FB		        bpl ki_clr2
  2907 3429 EE 44 06		        inc s1
  2908 342C CA			        dex
  2909 342D D0 E4		        bne ki_clr
  2910 				        ; draw bar at active key (if any)
  2911 342F AD 07 06		        lda note_idx
  2912 3432 C9 FF		        cmp #$FF
  2913 3434 F0 29		        beq ki_done
  2914 3436 AA			        tax
  2915 3437 BD 91 38		        lda key_xind_lo,x
  2916 343A 38			        sec
  2917 343B E9 04		        sbc #4                  ; centre-4
  2918 343D 8D 40 06		        sta xlo
  2919 3440 BD A2 38		        lda key_xind_hi,x
  2920 3443 E9 00		        sbc #0
  2921 3445 8D 41 06		        sta xhi
  2922 3448 A9 BA		        lda #186
  2923 344A 8D 42 06		        sta py
  2924 344D A9 08		        lda #8
  2925 344F 8D 51 06		        sta rw
  2926 3452 A9 04		        lda #4
  2927 3454 8D 52 06		        sta rh
  2928 3457 A9 00		        lda #0
  2929 3459 8D 61 06		        sta pmode
  2930 345C 20 2C 2B		        jsr fillrect
  2931 345F			ki_done
  2932 345F 60			        rts
  2933
  2934 				; OR a bitmap into the framebuffer: srcptr=data, s0=wbytes, s1=hrows,
  2935 				; bc_col=dest byte column, bc_scan=top scan line
  2936 3460			blit_bitmap
  2937 3460 A9 00		        lda #0
  2938 3462 8D 4C 06		        sta psi
  2939 3465 A2 00		        ldx #0
  2940 3467			bbm_row
  2941 3467 8A			        txa
  2942 3468 18			        clc
  2943 3469 6D 4A 06		        adc bc_scan
  2944 346C A8			        tay
  2945 346D B9 00 60		        lda linetab_lo,y
  2946 3470 18			        clc
  2947 3471 6D 49 06		        adc bc_col
  2948 3474 85 CF		        sta adjptr
  2949 3476 B9 C0 60		        lda linetab_hi,y
  2950 3479 69 00		        adc #0
  2951 347B 85 D0		        sta adjptr+1
  2952 347D A0 00		        ldy #0
  2953 347F			bbm_col
  2954 347F 8C 45 06		        sty s_dy
  2955 3482 AC 4C 06		        ldy psi
  2956 3485 B1 CD		        lda (srcptr),y
  2957 3487 AC 45 06		        ldy s_dy
  2958 348A 11 CF		        ora (adjptr),y
  2959 348C 91 CF		        sta (adjptr),y
  2960 348E EE 4C 06		        inc psi
  2961 3491 AC 45 06		        ldy s_dy
  2962 3494 C8			        iny
  2963 3495 CC 43 06		        cpy s0
  2964 3498 D0 E5		        bne bbm_col
  2965 349A E8			        inx
  2966 349B EC 44 06		        cpx s1
  2967 349E D0 C7		        bne bbm_row
  2968 34A0 60			        rts
  2969
  2970 				; WAVEFORM selector: 4 waveform icons, the active one boxed
  2971 34A1			draw_wave_selector
  2972 34A1 A9 10		        lda #16                 ; clear icon strip: byte cols 9..18, 14 rows
  2973 34A3 8D 44 06		        sta s1
  2974 34A6 A2 0E		        ldx #14
  2975 34A8			dws_clr
  2976 34A8 AC 44 06		        ldy s1
  2977 34AB B9 00 60		        lda linetab_lo,y
  2978 34AE 18			        clc
  2979 34AF 69 09		        adc #9
  2980 34B1 85 CB		        sta scrptr
  2981 34B3 B9 C0 60		        lda linetab_hi,y
  2982 34B6 69 00		        adc #0
  2983 34B8 85 CC		        sta scrptr+1
  2984 34BA A0 09		        ldy #9
  2985 34BC A9 00		        lda #0
  2986 34BE			dws_clr2
  2987 34BE 91 CB		        sta (scrptr),y
  2988 34C0 88			        dey
  2989 34C1 10 FB		        bpl dws_clr2
  2990 34C3 EE 44 06		        inc s1
  2991 34C6 CA			        dex
  2992 34C7 D0 DF		        bne dws_clr
  2993 34C9 A2 00		        ldx #0                  ; draw 4 icons (16x8)
  2994 34CB			dws_ic
  2995 34CB 8E 47 06		        stx s_pc
  2996 34CE BD F7 38		        lda icon_ptr_lo,x
  2997 34D1 85 CD		        sta srcptr
  2998 34D3 BD FB 38		        lda icon_ptr_hi,x
  2999 34D6 85 CE		        sta srcptr+1
  3000 34D8 BD F3 38		        lda icon_col,x
  3001 34DB 8D 49 06		        sta bc_col
  3002 34DE A9 12		        lda #18
  3003 34E0 8D 4A 06		        sta bc_scan
  3004 34E3 A9 02		        lda #2
  3005 34E5 8D 43 06		        sta s0
  3006 34E8 A9 08		        lda #8
  3007 34EA 8D 44 06		        sta s1
  3008 34ED 20 60 34		        jsr blit_bitmap
  3009 34F0 AE 47 06		        ldx s_pc
  3010 34F3 E8			        inx
  3011 34F4 E0 04		        cpx #4
  3012 34F6 D0 D3		        bne dws_ic
  3013 34F8 AE 01 06		        ldx wave_idx            ; box around the active icon
  3014 34FB BD F3 38		        lda icon_col,x
  3015 34FE 0A			        asl
  3016 34FF 0A			        asl
  3017 3500 0A			        asl                     ; byte col -> pixel x
  3018 3501 38			        sec
  3019 3502 E9 02		        sbc #2
  3020 3504 8D 40 06		        sta xlo
  3021 3507 A9 00		        lda #0
  3022 3509 8D 41 06		        sta xhi
  3023 350C 8D 61 06		        sta pmode
  3024 350F A9 10		        lda #16
  3025 3511 8D 42 06		        sta py
  3026 3514 A9 13		        lda #19
  3027 3516 8D 51 06		        sta rw
  3028 3519 A9 0C		        lda #12
  3029 351B 8D 52 06		        sta rh
  3030 351E 20 AD 2A		        jsr rect
  3031 3521 60			        rts
  3032
  3033 				; CLOCK mode: show the active mode name (NORMAL / 15 KHZ / 16-BIT)
  3034 3522			draw_clk_toggle
  3035 3522 A9 36		        lda #54                 ; clear strip: byte cols 29..38, 14 rows
  3036 3524 8D 44 06		        sta s1
  3037 3527 A2 0E		        ldx #14
  3038 3529			dct_clr
  3039 3529 AC 44 06		        ldy s1
  3040 352C B9 00 60		        lda linetab_lo,y
  3041 352F 18			        clc
  3042 3530 69 1D		        adc #29
  3043 3532 85 CB		        sta scrptr
  3044 3534 B9 C0 60		        lda linetab_hi,y
  3045 3537 69 00		        adc #0
  3046 3539 85 CC		        sta scrptr+1
  3047 353B A0 09		        ldy #9
  3048 353D A9 00		        lda #0
  3049 353F			dct_clr2
  3050 353F 91 CB		        sta (scrptr),y
  3051 3541 88			        dey
  3052 3542 10 FB		        bpl dct_clr2
  3053 3544 EE 44 06		        inc s1
  3054 3547 CA			        dex
  3055 3548 D0 DF		        bne dct_clr
  3056 354A A9 00		        lda #0
  3057 354C 8D 4B 06		        sta bc_inv
  3058 354F 8D 62 06		        sta bc_mode
  3059 3552 AD 04 06		        lda clock15             ; name = clock_names[mode*6]
  3060 3555 20 76 35		        jsr mul6
  3061 3558 18			        clc
  3062 3559 69 E9		        adc #<clock_names
  3063 355B 85 CD		        sta srcptr
  3064 355D A9 35		        lda #>clock_names
  3065 355F 69 00		        adc #0
  3066 3561 85 CE		        sta srcptr+1
  3067 3563 A9 1E		        lda #30
  3068 3565 8D 49 06		        sta bc_col
  3069 3568 A9 38		        lda #56
  3070 356A 8D 4A 06		        sta bc_scan
  3071 356D A9 06		        lda #6
  3072 356F 8D 4D 06		        sta pcnt
  3073 3572 20 D9 2B		        jsr print_n
  3074 3575 60			        rts
  3075
  3076 				; A * 6 -> A
  3077 3576			mul6
  3078 3576 8D 0C 06		        sta tmpA
  3079 3579 0A			        asl
  3080 357A 8D 0D 06		        sta tmp2
  3081 357D AD 0C 06		        lda tmpA
  3082 3580 0A			        asl
  3083 3581 0A			        asl
  3084 3582 18			        clc
  3085 3583 6D 0D 06		        adc tmp2
  3086 3586 60			        rts
  3087
  3088 				; ============================================================================
  3089 				;  TABLES
  3090 				; ============================================================================
  3091 				; chromatic AUDF divisors, PAL 8-bit, C2..E7 (index 0 = C2)
  3092 3587			chromatic
  3093 3587 78 71 6B 65 5F 5A +         .byte $78,$71,$6B,$65,$5F,$5A,$55,$50,$4B,$47,$43,$3F
  3094 3593 3C 38 35 32 2F 2C +         .byte $3C,$38,$35,$32,$2F,$2C,$2A,$27,$25,$23,$21,$1F
  3095 359F 1D 1C 1A 18 17 16 +         .byte $1D,$1C,$1A,$18,$17,$16,$14,$13,$12,$11,$10,$0F
  3096 35AB 0E 0D 0C 0C 0B 0A +         .byte $0E,$0D,$0C,$0C,$0B,$0A,$0A,$09,$09,$08,$07,$07
  3097 35B7 07 06 06 05 05 05 +         .byte $07,$06,$06,$05,$05,$05,$04,$04,$04,$03,$03,$03
  3098 35C3 03 03 02 02 02	        .byte $03,$03,$02,$02,$02
  3099 35C8			octave_base
  3100 35C8 00 0C 18 24 30	        .byte 0,12,24,36,48
  3101 35CD			wave_base
  3102 35CD A0 E0 C0 80		        .byte $A0,$E0,$C0,$80
  3103 35D1			wave_names
  3104 35D1 33 31 35 21 32 25 +         .byte "SQUARE","PURE  ","BUZZ  ","NOISE "
  3105 35E9			clock_names
  3106 35E9 2E 2F 32 2D 21 2C +         .byte "NORMAL","15 KHZ","16-BIT"
  3107 35FB			note_names
  3108 35FB 23 00 23 03 24 00 +         .byte "C C#D D#E F F#G G#A A#B "
  3109
  3110 				; 16-bit chromatic dividers, PAL 1.79 MHz clock, C2..E7 (index 0 = C2)
  3111 				; POKEY's joined-pair fast-clock period is (n+1)+6 = n+7 master cycles
  3112 				; (6-cycle chain-setup overhead), so n = round(master / (2*f) - 7).
  3113 3613			chrom16_lo
  3114 3613 EE F5 27 81 01 A5 +         .byte $EE,$F5,$27,$81,$01,$A5,$6B,$51,$55,$76,$B2,$07
  3115 361F 74 F7 90 3D FD CF +         .byte $74,$F7,$90,$3D,$FD,$CF,$B2,$A5,$A7,$B8,$D5,$00
  3116 362B 36 78 C5 1B 7B E4 +         .byte $36,$78,$C5,$1B,$7B,$E4,$56,$CF,$50,$D8,$67,$FC
  3117 3637 98 39 DF 8A 3A EF +         .byte $98,$39,$DF,$8A,$3A,$EF,$A7,$64,$25,$E9,$B0,$7B
  3118 3643 48 19 EC C2 9A 74 +         .byte $48,$19,$EC,$C2,$9A,$74,$50,$2F,$0F,$F1,$D5,$BA
  3119 364F A1 89 72 5D 49	        .byte $A1,$89,$72,$5D,$49
  3120 3654			chrom16_hi
  3121 3654 34 31 2F 2C 2A 27 +         .byte $34,$31,$2F,$2C,$2A,$27,$25,$23,$21,$1F,$1D,$1C
  3122 3660 1A 18 17 16 14 13 +         .byte $1A,$18,$17,$16,$14,$13,$12,$11,$10,$0F,$0E,$0E
  3123 366C 0D 0C 0B 0B 0A 09 +         .byte $0D,$0C,$0B,$0B,$0A,$09,$09,$08,$08,$07,$07,$06
  3124 3678 06 06 05 05 05 04 +         .byte $06,$06,$05,$05,$05,$04,$04,$04,$04,$03,$03,$03
  3125 3684 03 03 02 02 02 02 +         .byte $03,$03,$02,$02,$02,$02,$02,$02,$02,$01,$01,$01
  3126 3690 01 01 01 01 01	        .byte $01,$01,$01,$01,$01
  3127
  3128 3695			key_scan
  3129 3695 2F 1E 2E 1A 2A 28 +         .byte $2F,$1E,$2E,$1A,$2A,$28,$1D,$2D,$1B,$2B,$33,$0B,$0D,$30,$08,$32,$0A
  3130
  3131 				; apply_adjust parameter table (cur_param 0..7)
  3132 				; NB: param_lo/hi MUST have one entry per param (0..NPARAM-1). They previously
  3133 				; omitted TEMPO (index 12) -> apply_adjust read past the table when adjusting
  3134 				; TEMPO via the joystick (wrote stray RAM). Now includes TEMPO + ARPMODE.
  3135 36A6			param_lo
  3136 36A6 01 02 03 2C 2D 6E	        .byte <wave_idx,<volume,<octave,<atk_rate,<dec_rate,<detune
  3137 36AC 2E 2F 04 63 64 84	        .byte <sus_level,<rel_rate,<clock15,<lfo_rate,<lfo_depth,<arp_rate
  3138 36B2 8C B5 B6 BD C0 C5 +         .byte <tempo,<arp_mode,<porta_rate,<drum_dec,<hpf_cut,<preset_slot,<drum_beat
  3139 36B9			param_hi
  3140 36B9 06 06 06 06 06 06	        .byte >wave_idx,>volume,>octave,>atk_rate,>dec_rate,>detune
  3141 36BF 06 06 06 06 06 06	        .byte >sus_level,>rel_rate,>clock15,>lfo_rate,>lfo_depth,>arp_rate
  3142 36C5 06 06 06 06 06 06 +         .byte >tempo,>arp_mode,>porta_rate,>drum_dec,>hpf_cut,>preset_slot,>drum_beat
  3143 36CC			param_max
  3144 36CC 03 0F 04 0F 0F 0F +         .byte 3,15,4,15,15,15, 15,15,2,15,15,15, 15,3,15,15, 15,3,15
  3145 36DF			param_maxp1
  3146 36DF 04 10 05 10 10 10 +         .byte 4,16,5,16,16,16, 16,16,3,16,16,16, 16,4,16,16, 16,4,16
  3147
  3148 				; ----- parameter descriptor tables (NPARAM entries) -------------------------
  3149 				;        0 WAVE  1 VOL  2 OCT  3 ATK  4 DEC | 5 SUS  6 REL  7 CLK  8 LFOR 9 LFOD
  3150 				;        left column (0-4)                  | right column (5-9)
  3151 				; INDEX ORDER == VISUAL ORDER so UP/DOWN steps through the panel as drawn:
  3152 				;   left column top->bottom (0-5), then right column top->bottom (6-10).
  3153 				;        0 WAVE 1 VOL 2 OCT 3 ATK 4 DEC 5 DET | 6 SUS 7 REL 8 CLK 9 LFOR 10 LFOD
  3154 				;  left column 0-5             | right column 6-11 (incl ARP=11)
  3155 				; Page 0 = indices 0-11 (osc/env/fx).  Page 2 = indices 12+ (layout positions
  3156 				; reuse the page-0 grid, so all tables index by absolute param).
  3157 				;        page 2: 12 TEMPO (r0 left) 13 ARPMODE (r0 right) 14 PORTA (r1 left) 15 DRUM (r1 right)
  3158 36F2			p_kind
  3159 36F2 02 00 01 00 00 00	        .byte K_WAVE,K_KNOB,K_OCT,K_KNOB,K_KNOB,K_KNOB
  3160 36F8 00 00 03 00 00 00	        .byte K_KNOB,K_KNOB,K_CLK,K_KNOB,K_KNOB,K_KNOB
  3161 36FE 00 00 00 00		        .byte K_KNOB,K_KNOB,K_KNOB,K_KNOB                 ; 12 TEMPO,13 ARPMODE,14 PORTA,15 DRUM
  3162 3702 00 00 00		        .byte K_KNOB,K_KNOB,K_KNOB                        ; 16 HPF, 17 PRESET, 18 DRUMBEAT
  3163 3705			p_scan
  3164 3705 10 24 38 4C 60 6E +         .byte 16,36,56,76,96,110, 16,36,56,76,96,110
  3165 3711 10 10 24 24 10 10 +         .byte 16,16,36,36, 16,16,36
  3166 3718			p_lblcol
  3167 3718 01 01 01 01 01 01 +         .byte 1,1,1,1,1,1, 21,21,21,21,21,21
  3168 3724 01 15 01 15 01 15 +         .byte 1,21,1,21, 1,21,1
  3169 372B			p_knobcx
  3170 372B 56 56 56 56 56 56 +         .byte 86,86,86,86,86,86, 246,246,246,246,246,246
  3171 3737 56 F6 56 F6 56 F6 +         .byte 86,246,86,246, 86,246,86
  3172 373E			p_numcol
  3173 373E 0D 0D 0D 0D 0D 0D +         .byte 13,13,13,13,13,13, 33,33,33,33,33,33
  3174 374A 0D 21 0D 21 0D 21 +         .byte 13,33,13,33, 13,33,13
  3175 3751			p_vaddr_lo
  3176 3751 01 02 03 2C 2D 6E	        .byte <wave_idx,<volume,<octave,<atk_rate,<dec_rate,<detune
  3177 3757 2E 2F 04 63 64 84	        .byte <sus_level,<rel_rate,<clock15,<lfo_rate,<lfo_depth,<arp_rate
  3178 375D 8C B5 B6 BD C0 C5 +         .byte <tempo,<arp_mode,<porta_rate,<drum_dec,<hpf_cut,<preset_slot,<drum_beat
  3179 3764			p_vaddr_hi
  3180 3764 06 06 06 06 06 06	        .byte >wave_idx,>volume,>octave,>atk_rate,>dec_rate,>detune
  3181 376A 06 06 06 06 06 06	        .byte >sus_level,>rel_rate,>clock15,>lfo_rate,>lfo_depth,>arp_rate
  3182 3770 06 06 06 06 06 06 +         .byte >tempo,>arp_mode,>porta_rate,>drum_dec,>hpf_cut,>preset_slot,>drum_beat
  3183 3777			p_lblptr_lo
  3184 3777 FC 05 0C 13 1A 57	        .byte <txt_wave,<txt_vol,<txt_oct,<txt_atk,<txt_dec,<txt_det
  3185 377D 20 28 30 44 4D 5E	        .byte <txt_sus,<txt_rel,<txt_clk,<txt_lfor,<txt_lfod,<txt_arp
  3186 3783 67 6D 76 7C 81 8B +         .byte <txt_tempo,<txt_arpm,<txt_porta,<txt_drum,<txt_hpf,<txt_preset,<txt_dbeat
  3187 378A			p_lblptr_hi
  3188 378A 3C 3D 3D 3D 3D 3D	        .byte >txt_wave,>txt_vol,>txt_oct,>txt_atk,>txt_dec,>txt_det
  3189 3790 3D 3D 3D 3D 3D 3D	        .byte >txt_sus,>txt_rel,>txt_clk,>txt_lfor,>txt_lfod,>txt_arp
  3190 3796 3D 3D 3D 3D 3D 3D +         .byte >txt_tempo,>txt_arpm,>txt_porta,>txt_drum,>txt_hpf,>txt_preset,>txt_dbeat
  3191 				; Which char index in each label is the shortcut key (underlined). Renaming ARP
  3192 				; -> ARPEGGIO introduces a free 'G', which frees up enough letters to give EVERY
  3193 				; page-0 param a unique in-label letter, plus DRUMBEAT(B). Pages 1-2 (except
  3194 				; DRUMBEAT) have no spare free letter -> $FF (reach them via Tab + arrows).
  3195 				;   WAVE M=7  VOL V=0  OCT A=3  ATK K=5  DEC D=0  DET N=4
  3196 				;   SUS  S=0  REL L=2  CLK C=0  LFOR F=1 LFOD H=8  ARPEGGIO G=4   DRUMBEAT B=4
  3197 				;   page 0 + DRUMBEAT use PLAIN letters; the 5 page-1/2 params below use SHIFT+letter
  3198 				;   TEMPO M=2  ARP MODE D=6  PORTA A=4  HP FILTER H=0  PRESET S=3   (DRUM: none)
  3199 379D			p_hl
  3200 379D 07 00 03 05 00 04	        .byte 7,0,3,5,0,4
  3201 37A3 00 02 00 01 08 04	        .byte 0,2,0,1,8,4
  3202 37A9 02 06 04 FF 00 03 +         .byte 2,6,4,$FF, 0,3,4
  3203 				; 1 = this param's shortcut is a SHIFT+letter (drawn opposite video to its label)
  3204 37B0			p_hl_shift
  3205 37B0 00 00 00 00 00 00	        .byte 0,0,0,0,0,0
  3206 37B6 00 00 00 00 00 00	        .byte 0,0,0,0,0,0
  3207 37BC 01 01 01 00 01 01 +         .byte 1,1,1,0, 1,1,0
  3208 				; 1 = inert in 16-BIT clock mode (channels 3/4 are paired): PORTA, DRUM, HP FILTER,
  3209 				; DRUMBEAT. Struck through when clock15 = 2 so users don't twiddle dead controls.
  3210 37C3			p_inert16
  3211 37C3 00 00 00 00 00 00	        .byte 0,0,0,0,0,0
  3212 37C9 00 00 00 00 00 00	        .byte 0,0,0,0,0,0
  3213 37CF 00 00 01 01 01 00 +         .byte 0,0,1,1, 1,0,1
  3214 				; shortcut key -> param jump (read_navkeys). Letter is a FREE key (not piano)
  3215 				; underlined in the label; KBCODEs are the bridge/hardware values. Shift+letter
  3216 				; entries have bit7 ($80) set (Shift sets KBCODE bit7).
  3217 37D6			shortcut_kc
  3218 37D6 25 10 3F 05 3A 23 +         .byte $25,$10,$3F,$05,$3A,$23,$3E,$00,$12,$38,$39,$3D,$15
  3219 				;             M   V   A   K   D   N   S   L   C   F   H   G   B    (plain)
  3220 37E3 A5 BA BF B9 BE	        .byte $A5,$BA,$BF,$B9,$BE
  3221 				;             ^M  ^D  ^A  ^H  ^S                                  (shift)
  3222 37E8			shortcut_param
  3223 37E8 00 01 02 03 04 05 +         .byte 0,  1,  2,  3,  4,  5,  6,  7,  8,  9,  10, 11, 18
  3224 				;             WAV VOL OCT ATK DEC DET SUS REL CLK LFR LFD ARP DBT
  3225 37F5 0C 0D 0E 10 11	        .byte 12, 13, 14, 16, 17
  3226 				;             TMP ARM POR HPF PRE
  3227 				; effect params that render value 0 as "OFF": DETUNE(5) LFO DEPTH(10) ARP(11)
  3228 				;                                             PORTA(14) DRUM(15) HP FILTER(16)
  3229 37FA			p_zoff
  3230 37FA 00 00 00 00 00 01	        .byte 0,0,0,0,0,1
  3231 3800 00 00 00 00 01 01	        .byte 0,0,0,0,1,1
  3232 3806 00 00 01 01 01 00 +         .byte 0,0,1,1, 1,0,0
  3233
  3234 				; knob geometry
  3235 380D			bitmask_tab
  3236 380D 80 40 20 10 08 04 +         .byte $80,$40,$20,$10,$08,$04,$02,$01
  3237 3815			hw_tab                          ; half-width per |dy| 0..6
  3238 3815 06 06 06 05 04 03 +         .byte 6,6,6,5,4,3,0
  3239 				; pointer rim offsets (16 directions, clockwise from up), signed
  3240 381C			kn_ex
  3241 381C 00 02 04 05 05 05 +         .byte 0,2,4,5,5,5,4,2,0,$FE,$FC,$FB,$FB,$FB,$FC,$FE
  3242 382C			kn_ey
  3243 382C FB FB FC FE 00 02 +         .byte $FB,$FB,$FC,$FE,0,2,4,5,5,5,4,2,0,$FE,$FC,$FB
  3244 383C			kn_mx
  3245 383C 00 01 02 03 03 03 +         .byte 0,1,2,3,3,3,2,1,0,$FF,$FE,$FD,$FD,$FD,$FE,$FF
  3246 384C			kn_my
  3247 384C FD FD FE FF 00 01 +         .byte $FD,$FD,$FE,$FF,0,1,2,3,3,3,2,1,0,$FF,$FE,$FD
  3248 385C			oct_knob16                      ; octave 0..4 -> knob position
  3249 385C 00 04 08 0C 0F	        .byte 0,4,8,12,15
  3250
  3251 				; keyboard layout
  3252 3861			blackx_lo
  3253 3861 20 3E 7A 98 B6 F2 +         .byte 32,62,122,152,182,242,16
  3254 3868			blackx_hi
  3255 3868 00 00 00 00 00 00 +         .byte 0,0,0,0,0,0,1
  3256 386F			white_lblcol
  3257 386F 02 06 0A 0D 11 15 +         .byte 2,6,10,13,17,21,25,28,32,36
  3258 3879			white_lblch                     ; Q W E R T Y U I O P (screen codes)
  3259 3879 31 37 25 32 34 39 +         .byte $31,$37,$25,$32,$34,$39,$35,$29,$2F,$30
  3260 3883			black_lblcol                    ; byte col centering each number on its 16px black key
  3261 3883 04 08 10 13 17 1F +         .byte 4,8,16,19,23,31,34
  3262 388A			black_lblch                     ; 2 3 5 6 7 9 0 (screen codes)
  3263 388A 12 13 15 16 17 19 +         .byte $12,$13,$15,$16,$17,$19,$10
  3264 				; active-key indicator centre x per semitone 0..16
  3265 3891			key_xind_lo
  3266 3891 18 28 36 46 54 72 +         .byte 24,40,54,70,84,114,130,144,160,174,190,204,234,250,8,24,38
  3267 38A2			key_xind_hi
  3268 38A2 00 00 00 00 00 00 +         .byte 0,0,0,0,0,0,0,0,0,0,0,0,0,0,1,1,1
  3269
  3270 				; waveform icons (16x8, 2 bytes/row) for the WAVEFORM selector
  3271 38B3			icon_sq                         ; square / pulse
  3272 38B3 F8 3F 08 20 08 20 +         .byte $F8,$3F,$08,$20,$08,$20,$08,$20,$08,$20,$08,$20,$08,$20,$0F,$E0
  3273 38C3			icon_tri                        ; triangle (PURE)
  3274 38C3 01 80 02 40 04 20 +         .byte $01,$80,$02,$40,$04,$20,$08,$10,$10,$08,$20,$04,$40,$02,$80,$01
  3275 38D3			icon_saw                        ; sawtooth (BUZZ)
  3276 38D3 01 01 03 03 05 05 +         .byte $01,$01,$03,$03,$05,$05,$09,$09,$11,$11,$21,$21,$41,$41,$81,$81
  3277 38E3			icon_noise                      ; scattered dots (NOISE)
  3278 38E3 20 40 00 04 04 00 +         .byte $20,$40,$00,$04,$04,$00,$80,$10,$01,$01,$10,$00,$00,$82,$42,$08
  3279 38F3			icon_col
  3280 38F3 0A 0C 0E 10		        .byte 10,12,14,16       ; dest byte column of each icon
  3281 38F7			icon_ptr_lo
  3282 38F7 B3 C3 D3 E3		        .byte <icon_sq,<icon_tri,<icon_saw,<icon_noise
  3283 38FB			icon_ptr_hi
  3284 38FB 38 38 38 38		        .byte >icon_sq,>icon_tri,>icon_saw,>icon_noise
  3285
  3286 				; ----- display list: GR.8 (ANTIC mode $0F), 192 lines, two LMS regions ------
  3287 				; Fixed 1KB-aligned home, clear of linetab ($3000) and the framebuffer ($4000+),
  3288 				; and within one 1KB block (ANTIC's DL counter is 10-bit).
  3289 38FF			        org $3C00
  3290 3C00			dlist
  3291 3C00-3E11> 70 70 70	        .byte $70,$70,$70       ; 24 blank lines
  3292 3C03 4F			        .byte $4F               ; LMS + mode F  (scanline 0 = title row)
  3293 3C04 00 40		        .word FB1
  3294 3C06 0F 0F 0F 0F 0F 0F +         :101 .byte $0F          ; 101 more lines (102 total from FB1)
  3295 3C6B 4F			        .byte $4F               ; scanline 102: LMS FB2
  3296 3C6C 00 50		        .word FB2
  3297 3C6E 0F 0F 0F 0F 0F 0F +         :89 .byte $0F           ; 89 more lines (90 total from FB2)
  3298 3CC7 41			        .byte $41               ; JVB
  3299 3CC8 00 3C		        .word dlist
  3300
  3301 				; ----- custom step-cell glyphs (8 bytes each, MSB = leftmost pixel) ----------
  3302 				; index 0 rest, 1 note, 2 tie, 3 drum.  blit via blit_glyph (scrptr -> entry).
  3303 3CCA			seq_glyphs
  3304 3CCA 00 00 00 18 18 00 +         .byte $00,$00,$00,$18,$18,$00,$00,$00   ; 0 REST  - small centred dot
  3305 3CD2 00 18 14 10 10 70 +         .byte $00,$18,$14,$10,$10,$70,$70,$00   ; 1 NOTE  - eighth note (head+stem+flag)
  3306 3CDA 00 00 00 7E 7E 00 +         .byte $00,$00,$00,$7E,$7E,$00,$00,$00   ; 2 TIE   - centred horizontal bar
  3307 3CE2 00 42 24 18 18 24 +         .byte $00,$42,$24,$18,$18,$24,$42,$00   ; 3 DRUM  - X (percussion hit)
  3308
  3309 				; ----- text labels (screen codes, $FF-terminated) ---------------------------
  3310 3CEA 21 34 21 32 29 00 + txt_title  .byte "ATARI POKEY SYNTH",$FF
  3311 3CFC 37 21 36 25 26 2F + txt_wave   .byte "WAVEFORM",$FF
  3312 3D05 36 2F 2C 35 2D 25 + txt_vol    .byte "VOLUME",$FF
  3313 3D0C 2F 23 34 21 36 25 + txt_oct    .byte "OCTAVE",$FF
  3314 3D13 21 34 34 21 23 2B + txt_atk    .byte "ATTACK",$FF
  3315 3D1A 24 25 23 21 39 FF	txt_dec    .byte "DECAY",$FF
  3316 3D20 33 35 33 34 21 29 + txt_sus    .byte "SUSTAIN",$FF
  3317 3D28 32 25 2C 25 21 33 + txt_rel    .byte "RELEASE",$FF
  3318 3D30 23 2C 2F 23 2B FF	txt_clk    .byte "CLOCK",$FF
  3319 3D36 2E 2F 34 25 FF	txt_note   .byte "NOTE",$FF
  3320 3D3B 2E 2F 32 2D FF	txt_norm   .byte "NORM",$FF
  3321 3D40 11 15 2B FF		txt_15k    .byte "15K",$FF
  3322 3D44 2C 26 2F 00 32 21 + txt_lfor   .byte "LFO RATE",$FF
  3323 3D4D 2C 26 2F 00 24 25 + txt_lfod   .byte "LFO DEPTH",$FF
  3324 3D57 24 25 34 35 2E 25 + txt_det    .byte "DETUNE",$FF
  3325 3D5E 21 32 30 25 27 27 + txt_arp    .byte "ARPEGGIO",$FF
  3326 3D67 34 25 2D 30 2F FF	txt_tempo  .byte "TEMPO",$FF
  3327 3D6D 21 32 30 00 2D 2F + txt_arpm   .byte "ARP MODE",$FF
  3328 3D76 30 2F 32 34 21 FF	txt_porta  .byte "PORTA",$FF
  3329 3D7C 24 32 35 2D FF	txt_drum   .byte "DRUM",$FF
  3330 3D81 28 30 00 26 29 2C + txt_hpf    .byte "HP FILTER",$FF
  3331 3D8B 30 32 25 33 25 34 + txt_preset .byte "PRESET",$FF
  3332 3D92 24 32 35 2D 22 25 + txt_dbeat  .byte "DRUMBEAT",$FF
  3333 3D9B 30 2C 21 39 FF	txt_play   .byte "PLAY",$FF
  3334 3DA0 33 34 2F 30 FF	txt_stop   .byte "STOP",$FF
  3335 3DA5 32 25 23 FF		txt_rec    .byte "REC",$FF
  3336 3DA9 00 00 00 FF		txt_blk3   .byte "   ",$FF
  3337
  3338 				; context hint strings (drawn on the HINTSCAN row); hint_col centres each
  3339 3DAD 34 21 22 1D 30 21 + hint_d0    .byte "TAB=PAGE  OPT=HOLD",$FF      ; default (18 chars)
  3340 3DC0 33 34 21 32 34 1D + hint_d1    .byte "START=PLAY SEL=REC",$FF      ; sequencer page (18 chars)
  3341 3DD3 32 25 34 1D 33 21 + hint_d2    .byte "RET=SAVE PRESET",$FF         ; PRESET selected (15 chars)
  3342 3DE3 AD C0 D3		hint_lo    .byte <hint_d0,<hint_d1,<hint_d2
  3343 3DE6 3D 3D 3D		hint_hi    .byte >hint_d0,>hint_d1,>hint_d2
  3344 3DE9 0B 0B 0C		hint_col   .byte 11,11,12                      ; centre col per hint
  3345
  3346 				; PRESET slot names (5 cells, space-padded so they overwrite cleanly) + SAVED flash
  3347 3DEC 33 21 36 25 24 FF	txt_saved  .byte "SAVED",$FF
  3348 3DF2 29 2E 29 34 00 FF	pn_init    .byte "INIT ",$FF
  3349 3DF8 30 21 24 00 00 FF	pn_pad     .byte "PAD  ",$FF
  3350 3DFE 2C 25 21 24 00 FF	pn_lead    .byte "LEAD ",$FF
  3351 3E04 21 32 30 00 00 FF	pn_arp     .byte "ARP  ",$FF
  3352 3E0A F2 F8 FE 04		preset_name_lo .byte <pn_init,<pn_pad,<pn_lead,<pn_arp
  3353 3E0E 3D 3D 3D 3E		preset_name_hi .byte >pn_init,>pn_pad,>pn_lead,>pn_arp
  3354
  3355 02E0-02E1> 00 20		        run main
